ARM GAS  /tmp/ccLHB6Yu.s 			page 1


   1              		.cpu cortex-m4
   2              		.eabi_attribute 27, 1
   3              		.eabi_attribute 28, 1
   4              		.eabi_attribute 20, 1
   5              		.eabi_attribute 21, 1
   6              		.eabi_attribute 23, 3
   7              		.eabi_attribute 24, 1
   8              		.eabi_attribute 25, 1
   9              		.eabi_attribute 26, 1
  10              		.eabi_attribute 30, 2
  11              		.eabi_attribute 34, 1
  12              		.eabi_attribute 18, 4
  13              		.file	"gpio.c"
  14              		.text
  15              	.Ltext0:
  16              		.cfi_sections	.debug_frame
  17              		.section	.text.MX_GPIO_Init,"ax",%progbits
  18              		.align	1
  19              		.p2align 2,,3
  20              		.global	MX_GPIO_Init
  21              		.arch armv7e-m
  22              		.syntax unified
  23              		.thumb
  24              		.thumb_func
  25              		.fpu fpv4-sp-d16
  27              	MX_GPIO_Init:
  28              	.LFB126:
  29              		.file 1 "Src/gpio.c"
   1:Src/gpio.c    **** /**
   2:Src/gpio.c    ****   ******************************************************************************
   3:Src/gpio.c    ****   * File Name          : gpio.c
   4:Src/gpio.c    ****   * Description        : This file provides code for the configuration
   5:Src/gpio.c    ****   *                      of all used GPIO pins.
   6:Src/gpio.c    ****   ******************************************************************************
   7:Src/gpio.c    ****   ** This notice applies to any and all portions of this file
   8:Src/gpio.c    ****   * that are not between comment pairs USER CODE BEGIN and
   9:Src/gpio.c    ****   * USER CODE END. Other portions of this file, whether 
  10:Src/gpio.c    ****   * inserted by the user or by software development tools
  11:Src/gpio.c    ****   * are owned by their respective copyright owners.
  12:Src/gpio.c    ****   *
  13:Src/gpio.c    ****   * COPYRIGHT(c) 2019 STMicroelectronics
  14:Src/gpio.c    ****   *
  15:Src/gpio.c    ****   * Redistribution and use in source and binary forms, with or without modification,
  16:Src/gpio.c    ****   * are permitted provided that the following conditions are met:
  17:Src/gpio.c    ****   *   1. Redistributions of source code must retain the above copyright notice,
  18:Src/gpio.c    ****   *      this list of conditions and the following disclaimer.
  19:Src/gpio.c    ****   *   2. Redistributions in binary form must reproduce the above copyright notice,
  20:Src/gpio.c    ****   *      this list of conditions and the following disclaimer in the documentation
  21:Src/gpio.c    ****   *      and/or other materials provided with the distribution.
  22:Src/gpio.c    ****   *   3. Neither the name of STMicroelectronics nor the names of its contributors
  23:Src/gpio.c    ****   *      may be used to endorse or promote products derived from this software
  24:Src/gpio.c    ****   *      without specific prior written permission.
  25:Src/gpio.c    ****   *
  26:Src/gpio.c    ****   * THIS SOFTWARE IS PROVIDED BY THE COPYRIGHT HOLDERS AND CONTRIBUTORS "AS IS"
  27:Src/gpio.c    ****   * AND ANY EXPRESS OR IMPLIED WARRANTIES, INCLUDING, BUT NOT LIMITED TO, THE
  28:Src/gpio.c    ****   * IMPLIED WARRANTIES OF MERCHANTABILITY AND FITNESS FOR A PARTICULAR PURPOSE ARE
  29:Src/gpio.c    ****   * DISCLAIMED. IN NO EVENT SHALL THE COPYRIGHT HOLDER OR CONTRIBUTORS BE LIABLE
ARM GAS  /tmp/ccLHB6Yu.s 			page 2


  30:Src/gpio.c    ****   * FOR ANY DIRECT, INDIRECT, INCIDENTAL, SPECIAL, EXEMPLARY, OR CONSEQUENTIAL
  31:Src/gpio.c    ****   * DAMAGES (INCLUDING, BUT NOT LIMITED TO, PROCUREMENT OF SUBSTITUTE GOODS OR
  32:Src/gpio.c    ****   * SERVICES; LOSS OF USE, DATA, OR PROFITS; OR BUSINESS INTERRUPTION) HOWEVER
  33:Src/gpio.c    ****   * CAUSED AND ON ANY THEORY OF LIABILITY, WHETHER IN CONTRACT, STRICT LIABILITY,
  34:Src/gpio.c    ****   * OR TORT (INCLUDING NEGLIGENCE OR OTHERWISE) ARISING IN ANY WAY OUT OF THE USE
  35:Src/gpio.c    ****   * OF THIS SOFTWARE, EVEN IF ADVISED OF THE POSSIBILITY OF SUCH DAMAGE.
  36:Src/gpio.c    ****   *
  37:Src/gpio.c    ****   ******************************************************************************
  38:Src/gpio.c    ****   */
  39:Src/gpio.c    **** 
  40:Src/gpio.c    **** /* Includes ------------------------------------------------------------------*/
  41:Src/gpio.c    **** #include "gpio.h"
  42:Src/gpio.c    **** /* USER CODE BEGIN 0 */
  43:Src/gpio.c    **** 
  44:Src/gpio.c    **** /* USER CODE END 0 */
  45:Src/gpio.c    **** 
  46:Src/gpio.c    **** /*----------------------------------------------------------------------------*/
  47:Src/gpio.c    **** /* Configure GPIO                                                             */
  48:Src/gpio.c    **** /*----------------------------------------------------------------------------*/
  49:Src/gpio.c    **** /* USER CODE BEGIN 1 */
  50:Src/gpio.c    **** 
  51:Src/gpio.c    **** /* USER CODE END 1 */
  52:Src/gpio.c    **** 
  53:Src/gpio.c    **** /** Configure pins as 
  54:Src/gpio.c    ****         * Analog 
  55:Src/gpio.c    ****         * Input 
  56:Src/gpio.c    ****         * Output
  57:Src/gpio.c    ****         * EVENT_OUT
  58:Src/gpio.c    ****         * EXTI
  59:Src/gpio.c    ****         * Free pins are configured automatically as Analog (this feature is enabled through 
  60:Src/gpio.c    ****         * the Code Generation settings)
  61:Src/gpio.c    **** */
  62:Src/gpio.c    **** void MX_GPIO_Init(void)
  63:Src/gpio.c    **** {
  30              		.loc 1 63 1 view -0
  31              		.cfi_startproc
  32              		@ args = 0, pretend = 0, frame = 48
  33              		@ frame_needed = 0, uses_anonymous_args = 0
  64:Src/gpio.c    **** 
  65:Src/gpio.c    ****   GPIO_InitTypeDef GPIO_InitStruct;
  34              		.loc 1 65 3 view .LVU1
  66:Src/gpio.c    **** 
  67:Src/gpio.c    ****   /* GPIO Ports Clock Enable */
  68:Src/gpio.c    ****   __HAL_RCC_GPIOC_CLK_ENABLE();
  35              		.loc 1 68 3 view .LVU2
  36              	.LBB2:
  37              		.loc 1 68 3 view .LVU3
  38              	.LBE2:
  63:Src/gpio.c    **** 
  39              		.loc 1 63 1 is_stmt 0 view .LVU4
  40 0000 2DE97043 		push	{r4, r5, r6, r8, r9, lr}
  41              	.LCFI0:
  42              		.cfi_def_cfa_offset 24
  43              		.cfi_offset 4, -24
  44              		.cfi_offset 5, -20
  45              		.cfi_offset 6, -16
  46              		.cfi_offset 8, -12
ARM GAS  /tmp/ccLHB6Yu.s 			page 3


  47              		.cfi_offset 9, -8
  48              		.cfi_offset 14, -4
  49 0004 8CB0     		sub	sp, sp, #48
  50              	.LCFI1:
  51              		.cfi_def_cfa_offset 72
  52              	.LBB3:
  53              		.loc 1 68 3 view .LVU5
  54 0006 0024     		movs	r4, #0
  55 0008 4F4B     		ldr	r3, .L4
  56 000a 0194     		str	r4, [sp, #4]
  57              		.loc 1 68 3 is_stmt 1 view .LVU6
  58 000c 1A6B     		ldr	r2, [r3, #48]
  59              	.LBE3:
  69:Src/gpio.c    ****   __HAL_RCC_GPIOH_CLK_ENABLE();
  70:Src/gpio.c    ****   __HAL_RCC_GPIOA_CLK_ENABLE();
  71:Src/gpio.c    ****   __HAL_RCC_GPIOB_CLK_ENABLE();
  72:Src/gpio.c    ****   __HAL_RCC_GPIOD_CLK_ENABLE();
  73:Src/gpio.c    **** 
  74:Src/gpio.c    ****   /*Configure GPIO pin Output Level */
  75:Src/gpio.c    ****   HAL_GPIO_WritePin(GPIOC, LCD_RS_Pin|LCD_RW_Pin|LCD_D0_Pin|LCD_D1_Pin 
  60              		.loc 1 75 3 is_stmt 0 view .LVU7
  61 000e 4F4D     		ldr	r5, .L4+4
  76:Src/gpio.c    ****                           |LCD_D2_Pin|LCD_D3_Pin|LCD_D4_Pin|LCD_D5_Pin 
  77:Src/gpio.c    ****                           |LCD_D6_Pin|LCD_D7_Pin, GPIO_PIN_RESET);
  78:Src/gpio.c    **** 
  79:Src/gpio.c    ****   /*Configure GPIO pin Output Level */
  80:Src/gpio.c    ****   HAL_GPIO_WritePin(LD2_GPIO_Port, LD2_Pin, GPIO_PIN_RESET);
  62              		.loc 1 80 3 view .LVU8
  63 0010 4F4E     		ldr	r6, .L4+8
  64              	.LBB4:
  68:Src/gpio.c    ****   __HAL_RCC_GPIOH_CLK_ENABLE();
  65              		.loc 1 68 3 view .LVU9
  66 0012 42F00402 		orr	r2, r2, #4
  67 0016 1A63     		str	r2, [r3, #48]
  68:Src/gpio.c    ****   __HAL_RCC_GPIOH_CLK_ENABLE();
  68              		.loc 1 68 3 is_stmt 1 view .LVU10
  69 0018 1A6B     		ldr	r2, [r3, #48]
  70 001a 02F00402 		and	r2, r2, #4
  71 001e 0192     		str	r2, [sp, #4]
  68:Src/gpio.c    ****   __HAL_RCC_GPIOH_CLK_ENABLE();
  72              		.loc 1 68 3 view .LVU11
  73 0020 019A     		ldr	r2, [sp, #4]
  74              	.LBE4:
  69:Src/gpio.c    ****   __HAL_RCC_GPIOH_CLK_ENABLE();
  75              		.loc 1 69 3 view .LVU12
  76              	.LBB5:
  69:Src/gpio.c    ****   __HAL_RCC_GPIOH_CLK_ENABLE();
  77              		.loc 1 69 3 view .LVU13
  78 0022 0294     		str	r4, [sp, #8]
  69:Src/gpio.c    ****   __HAL_RCC_GPIOH_CLK_ENABLE();
  79              		.loc 1 69 3 view .LVU14
  80 0024 1A6B     		ldr	r2, [r3, #48]
  81 0026 42F08002 		orr	r2, r2, #128
  82 002a 1A63     		str	r2, [r3, #48]
  69:Src/gpio.c    ****   __HAL_RCC_GPIOH_CLK_ENABLE();
  83              		.loc 1 69 3 view .LVU15
  84 002c 1A6B     		ldr	r2, [r3, #48]
ARM GAS  /tmp/ccLHB6Yu.s 			page 4


  85 002e 02F08002 		and	r2, r2, #128
  86 0032 0292     		str	r2, [sp, #8]
  69:Src/gpio.c    ****   __HAL_RCC_GPIOH_CLK_ENABLE();
  87              		.loc 1 69 3 view .LVU16
  88 0034 029A     		ldr	r2, [sp, #8]
  89              	.LBE5:
  70:Src/gpio.c    ****   __HAL_RCC_GPIOB_CLK_ENABLE();
  90              		.loc 1 70 3 view .LVU17
  91              	.LBB6:
  70:Src/gpio.c    ****   __HAL_RCC_GPIOB_CLK_ENABLE();
  92              		.loc 1 70 3 view .LVU18
  93 0036 0394     		str	r4, [sp, #12]
  70:Src/gpio.c    ****   __HAL_RCC_GPIOB_CLK_ENABLE();
  94              		.loc 1 70 3 view .LVU19
  95 0038 1A6B     		ldr	r2, [r3, #48]
  96 003a 42F00102 		orr	r2, r2, #1
  97 003e 1A63     		str	r2, [r3, #48]
  70:Src/gpio.c    ****   __HAL_RCC_GPIOB_CLK_ENABLE();
  98              		.loc 1 70 3 view .LVU20
  99 0040 1A6B     		ldr	r2, [r3, #48]
 100 0042 02F00102 		and	r2, r2, #1
 101 0046 0392     		str	r2, [sp, #12]
  70:Src/gpio.c    ****   __HAL_RCC_GPIOB_CLK_ENABLE();
 102              		.loc 1 70 3 view .LVU21
 103 0048 039A     		ldr	r2, [sp, #12]
 104              	.LBE6:
  71:Src/gpio.c    ****   __HAL_RCC_GPIOD_CLK_ENABLE();
 105              		.loc 1 71 3 view .LVU22
 106              	.LBB7:
  71:Src/gpio.c    ****   __HAL_RCC_GPIOD_CLK_ENABLE();
 107              		.loc 1 71 3 view .LVU23
 108 004a 0494     		str	r4, [sp, #16]
  71:Src/gpio.c    ****   __HAL_RCC_GPIOD_CLK_ENABLE();
 109              		.loc 1 71 3 view .LVU24
 110 004c 1A6B     		ldr	r2, [r3, #48]
 111 004e 42F00202 		orr	r2, r2, #2
 112 0052 1A63     		str	r2, [r3, #48]
  71:Src/gpio.c    ****   __HAL_RCC_GPIOD_CLK_ENABLE();
 113              		.loc 1 71 3 view .LVU25
 114 0054 1A6B     		ldr	r2, [r3, #48]
 115 0056 02F00202 		and	r2, r2, #2
 116 005a 0492     		str	r2, [sp, #16]
  71:Src/gpio.c    ****   __HAL_RCC_GPIOD_CLK_ENABLE();
 117              		.loc 1 71 3 view .LVU26
 118 005c 049A     		ldr	r2, [sp, #16]
 119              	.LBE7:
  72:Src/gpio.c    **** 
 120              		.loc 1 72 3 view .LVU27
 121              	.LBB8:
  72:Src/gpio.c    **** 
 122              		.loc 1 72 3 view .LVU28
 123 005e 0594     		str	r4, [sp, #20]
  72:Src/gpio.c    **** 
 124              		.loc 1 72 3 view .LVU29
 125 0060 1A6B     		ldr	r2, [r3, #48]
 126 0062 42F00802 		orr	r2, r2, #8
 127 0066 1A63     		str	r2, [r3, #48]
ARM GAS  /tmp/ccLHB6Yu.s 			page 5


  72:Src/gpio.c    **** 
 128              		.loc 1 72 3 view .LVU30
 129 0068 1B6B     		ldr	r3, [r3, #48]
 130 006a 03F00803 		and	r3, r3, #8
 131 006e 0593     		str	r3, [sp, #20]
  72:Src/gpio.c    **** 
 132              		.loc 1 72 3 view .LVU31
 133              	.LBE8:
  75:Src/gpio.c    ****                           |LCD_D2_Pin|LCD_D3_Pin|LCD_D4_Pin|LCD_D5_Pin 
 134              		.loc 1 75 3 is_stmt 0 view .LVU32
 135 0070 2246     		mov	r2, r4
 136 0072 2846     		mov	r0, r5
 137 0074 40F2FF31 		movw	r1, #1023
 138              	.LBB9:
  72:Src/gpio.c    **** 
 139              		.loc 1 72 3 view .LVU33
 140 0078 059B     		ldr	r3, [sp, #20]
 141              	.LBE9:
  75:Src/gpio.c    ****                           |LCD_D2_Pin|LCD_D3_Pin|LCD_D4_Pin|LCD_D5_Pin 
 142              		.loc 1 75 3 is_stmt 1 view .LVU34
 143 007a FFF7FEFF 		bl	HAL_GPIO_WritePin
 144              	.LVL0:
 145              		.loc 1 80 3 view .LVU35
 146 007e 2246     		mov	r2, r4
 147 0080 3046     		mov	r0, r6
 148 0082 2021     		movs	r1, #32
 149 0084 FFF7FEFF 		bl	HAL_GPIO_WritePin
 150              	.LVL1:
  81:Src/gpio.c    **** 
  82:Src/gpio.c    ****   /*Configure GPIO pin : PtPin */
  83:Src/gpio.c    ****   GPIO_InitStruct.Pin = B1_Pin;
 151              		.loc 1 83 3 view .LVU36
  84:Src/gpio.c    ****   GPIO_InitStruct.Mode = GPIO_MODE_IT_FALLING;
 152              		.loc 1 84 3 view .LVU37
  83:Src/gpio.c    ****   GPIO_InitStruct.Mode = GPIO_MODE_IT_FALLING;
 153              		.loc 1 83 23 is_stmt 0 view .LVU38
 154 0088 324B     		ldr	r3, .L4+12
  85:Src/gpio.c    ****   GPIO_InitStruct.Pull = GPIO_NOPULL;
 155              		.loc 1 85 24 view .LVU39
 156 008a 0894     		str	r4, [sp, #32]
  86:Src/gpio.c    ****   HAL_GPIO_Init(B1_GPIO_Port, &GPIO_InitStruct);
 157              		.loc 1 86 3 view .LVU40
 158 008c 2846     		mov	r0, r5
 159 008e 06A9     		add	r1, sp, #24
  83:Src/gpio.c    ****   GPIO_InitStruct.Mode = GPIO_MODE_IT_FALLING;
 160              		.loc 1 83 23 view .LVU41
 161 0090 4FF40052 		mov	r2, #8192
 162 0094 CDE90623 		strd	r2, [sp, #24]
  85:Src/gpio.c    ****   GPIO_InitStruct.Pull = GPIO_NOPULL;
 163              		.loc 1 85 3 is_stmt 1 view .LVU42
 164              		.loc 1 86 3 view .LVU43
  87:Src/gpio.c    **** 
  88:Src/gpio.c    ****   /*Configure GPIO pins : PCPin PCPin PCPin PCPin 
  89:Src/gpio.c    ****                            PCPin PCPin PCPin PCPin 
  90:Src/gpio.c    ****                            PCPin PCPin */
  91:Src/gpio.c    ****   GPIO_InitStruct.Pin = LCD_RS_Pin|LCD_RW_Pin|LCD_D0_Pin|LCD_D1_Pin 
 165              		.loc 1 91 23 is_stmt 0 view .LVU44
ARM GAS  /tmp/ccLHB6Yu.s 			page 6


 166 0098 4FF00008 		mov	r8, #0
  86:Src/gpio.c    ****   HAL_GPIO_Init(B1_GPIO_Port, &GPIO_InitStruct);
 167              		.loc 1 86 3 view .LVU45
 168 009c FFF7FEFF 		bl	HAL_GPIO_Init
 169              	.LVL2:
 170              		.loc 1 91 3 is_stmt 1 view .LVU46
  92:Src/gpio.c    ****                           |LCD_D2_Pin|LCD_D3_Pin|LCD_D4_Pin|LCD_D5_Pin 
  93:Src/gpio.c    ****                           |LCD_D6_Pin|LCD_D7_Pin;
  94:Src/gpio.c    ****   GPIO_InitStruct.Mode = GPIO_MODE_OUTPUT_PP;
 171              		.loc 1 94 3 view .LVU47
  95:Src/gpio.c    ****   GPIO_InitStruct.Pull = GPIO_NOPULL;
 172              		.loc 1 95 3 view .LVU48
  96:Src/gpio.c    ****   GPIO_InitStruct.Speed = GPIO_SPEED_FREQ_LOW;
 173              		.loc 1 96 3 view .LVU49
  91:Src/gpio.c    ****                           |LCD_D2_Pin|LCD_D3_Pin|LCD_D4_Pin|LCD_D5_Pin 
 174              		.loc 1 91 23 is_stmt 0 view .LVU50
 175 00a0 4FF00009 		mov	r9, #0
  97:Src/gpio.c    ****   HAL_GPIO_Init(GPIOC, &GPIO_InitStruct);
 176              		.loc 1 97 3 view .LVU51
 177 00a4 06A9     		add	r1, sp, #24
 178 00a6 2846     		mov	r0, r5
  91:Src/gpio.c    ****                           |LCD_D2_Pin|LCD_D3_Pin|LCD_D4_Pin|LCD_D5_Pin 
 179              		.loc 1 91 23 view .LVU52
 180 00a8 40F2FF32 		movw	r2, #1023
 181 00ac 0123     		movs	r3, #1
 182 00ae CDE90623 		strd	r2, [sp, #24]
 183 00b2 CDE90889 		strd	r8, [sp, #32]
 184              		.loc 1 97 3 is_stmt 1 view .LVU53
 185 00b6 FFF7FEFF 		bl	HAL_GPIO_Init
 186              	.LVL3:
  98:Src/gpio.c    **** 
  99:Src/gpio.c    ****   /*Configure GPIO pins : PA0 PA1 PA6 PA7 
 100:Src/gpio.c    ****                            PA8 PA9 PA10 PA11 
 101:Src/gpio.c    ****                            PA12 PA15 */
 102:Src/gpio.c    ****   GPIO_InitStruct.Pin = GPIO_PIN_0|GPIO_PIN_1|GPIO_PIN_6|GPIO_PIN_7 
 187              		.loc 1 102 3 view .LVU54
 103:Src/gpio.c    ****                           |GPIO_PIN_8|GPIO_PIN_9|GPIO_PIN_10|GPIO_PIN_11 
 104:Src/gpio.c    ****                           |GPIO_PIN_12|GPIO_PIN_15;
 105:Src/gpio.c    ****   GPIO_InitStruct.Mode = GPIO_MODE_ANALOG;
 188              		.loc 1 105 3 view .LVU55
 106:Src/gpio.c    ****   GPIO_InitStruct.Pull = GPIO_NOPULL;
 107:Src/gpio.c    ****   HAL_GPIO_Init(GPIOA, &GPIO_InitStruct);
 189              		.loc 1 107 3 is_stmt 0 view .LVU56
 190 00ba 06A9     		add	r1, sp, #24
 191 00bc 3046     		mov	r0, r6
 102:Src/gpio.c    ****                           |GPIO_PIN_8|GPIO_PIN_9|GPIO_PIN_10|GPIO_PIN_11 
 192              		.loc 1 102 23 view .LVU57
 193 00be 49F6C372 		movw	r2, #40899
 194 00c2 0323     		movs	r3, #3
 195 00c4 CDE90623 		strd	r2, [sp, #24]
 106:Src/gpio.c    ****   GPIO_InitStruct.Pull = GPIO_NOPULL;
 196              		.loc 1 106 3 is_stmt 1 view .LVU58
 197              		.loc 1 107 3 view .LVU59
 106:Src/gpio.c    ****   GPIO_InitStruct.Pull = GPIO_NOPULL;
 198              		.loc 1 106 24 is_stmt 0 view .LVU60
 199 00c8 0894     		str	r4, [sp, #32]
 200              		.loc 1 107 3 view .LVU61
ARM GAS  /tmp/ccLHB6Yu.s 			page 7


 201 00ca FFF7FEFF 		bl	HAL_GPIO_Init
 202              	.LVL4:
 108:Src/gpio.c    **** 
 109:Src/gpio.c    ****   /*Configure GPIO pin : PtPin */
 110:Src/gpio.c    ****   GPIO_InitStruct.Pin = Voltmetre_Pin;
 203              		.loc 1 110 3 is_stmt 1 view .LVU62
 111:Src/gpio.c    ****   GPIO_InitStruct.Mode = GPIO_MODE_IT_RISING;
 204              		.loc 1 111 3 view .LVU63
 110:Src/gpio.c    ****   GPIO_InitStruct.Mode = GPIO_MODE_IT_RISING;
 205              		.loc 1 110 23 is_stmt 0 view .LVU64
 206 00ce 224B     		ldr	r3, .L4+16
 112:Src/gpio.c    ****   GPIO_InitStruct.Pull = GPIO_NOPULL;
 207              		.loc 1 112 24 view .LVU65
 208 00d0 0894     		str	r4, [sp, #32]
 113:Src/gpio.c    ****   HAL_GPIO_Init(Voltmetre_GPIO_Port, &GPIO_InitStruct);
 209              		.loc 1 113 3 view .LVU66
 210 00d2 06A9     		add	r1, sp, #24
 211 00d4 3046     		mov	r0, r6
 110:Src/gpio.c    ****   GPIO_InitStruct.Mode = GPIO_MODE_IT_RISING;
 212              		.loc 1 110 23 view .LVU67
 213 00d6 1022     		movs	r2, #16
 214 00d8 CDE90623 		strd	r2, [sp, #24]
 112:Src/gpio.c    ****   GPIO_InitStruct.Pull = GPIO_NOPULL;
 215              		.loc 1 112 3 is_stmt 1 view .LVU68
 216              		.loc 1 113 3 view .LVU69
 217 00dc FFF7FEFF 		bl	HAL_GPIO_Init
 218              	.LVL5:
 114:Src/gpio.c    **** 
 115:Src/gpio.c    ****   /*Configure GPIO pin : PtPin */
 116:Src/gpio.c    ****   GPIO_InitStruct.Pin = LD2_Pin;
 219              		.loc 1 116 3 view .LVU70
 117:Src/gpio.c    ****   GPIO_InitStruct.Mode = GPIO_MODE_OUTPUT_PP;
 220              		.loc 1 117 3 view .LVU71
 118:Src/gpio.c    ****   GPIO_InitStruct.Pull = GPIO_NOPULL;
 221              		.loc 1 118 3 view .LVU72
 119:Src/gpio.c    ****   GPIO_InitStruct.Speed = GPIO_SPEED_FREQ_LOW;
 222              		.loc 1 119 3 view .LVU73
 120:Src/gpio.c    ****   HAL_GPIO_Init(LD2_GPIO_Port, &GPIO_InitStruct);
 223              		.loc 1 120 3 is_stmt 0 view .LVU74
 224 00e0 3046     		mov	r0, r6
 225 00e2 06A9     		add	r1, sp, #24
 116:Src/gpio.c    ****   GPIO_InitStruct.Mode = GPIO_MODE_OUTPUT_PP;
 226              		.loc 1 116 23 view .LVU75
 227 00e4 2022     		movs	r2, #32
 228 00e6 0123     		movs	r3, #1
 229 00e8 CDE90623 		strd	r2, [sp, #24]
 230 00ec CDE90889 		strd	r8, [sp, #32]
 231              		.loc 1 120 3 is_stmt 1 view .LVU76
 232 00f0 FFF7FEFF 		bl	HAL_GPIO_Init
 233              	.LVL6:
 121:Src/gpio.c    **** 
 122:Src/gpio.c    ****   /*Configure GPIO pins : PB0 PB1 PB2 PB10 
 123:Src/gpio.c    ****                            PB12 PB13 PB14 PB15 
 124:Src/gpio.c    ****                            PB4 PB5 PB6 PB7 
 125:Src/gpio.c    ****                            PB8 PB9 */
 126:Src/gpio.c    ****   GPIO_InitStruct.Pin = GPIO_PIN_0|GPIO_PIN_1|GPIO_PIN_2|GPIO_PIN_10 
 234              		.loc 1 126 3 view .LVU77
ARM GAS  /tmp/ccLHB6Yu.s 			page 8


 127:Src/gpio.c    ****                           |GPIO_PIN_12|GPIO_PIN_13|GPIO_PIN_14|GPIO_PIN_15 
 128:Src/gpio.c    ****                           |GPIO_PIN_4|GPIO_PIN_5|GPIO_PIN_6|GPIO_PIN_7 
 129:Src/gpio.c    ****                           |GPIO_PIN_8|GPIO_PIN_9;
 130:Src/gpio.c    ****   GPIO_InitStruct.Mode = GPIO_MODE_ANALOG;
 235              		.loc 1 130 3 view .LVU78
 131:Src/gpio.c    ****   GPIO_InitStruct.Pull = GPIO_NOPULL;
 132:Src/gpio.c    ****   HAL_GPIO_Init(GPIOB, &GPIO_InitStruct);
 236              		.loc 1 132 3 is_stmt 0 view .LVU79
 237 00f4 06A9     		add	r1, sp, #24
 126:Src/gpio.c    ****                           |GPIO_PIN_12|GPIO_PIN_13|GPIO_PIN_14|GPIO_PIN_15 
 238              		.loc 1 126 23 view .LVU80
 239 00f6 4FF2F772 		movw	r2, #63479
 240 00fa 0323     		movs	r3, #3
 241              		.loc 1 132 3 view .LVU81
 242 00fc 1748     		ldr	r0, .L4+20
 131:Src/gpio.c    ****   GPIO_InitStruct.Pull = GPIO_NOPULL;
 243              		.loc 1 131 24 view .LVU82
 244 00fe 0894     		str	r4, [sp, #32]
 126:Src/gpio.c    ****                           |GPIO_PIN_12|GPIO_PIN_13|GPIO_PIN_14|GPIO_PIN_15 
 245              		.loc 1 126 23 view .LVU83
 246 0100 CDE90623 		strd	r2, [sp, #24]
 131:Src/gpio.c    ****   GPIO_InitStruct.Pull = GPIO_NOPULL;
 247              		.loc 1 131 3 is_stmt 1 view .LVU84
 248              		.loc 1 132 3 view .LVU85
 249 0104 FFF7FEFF 		bl	HAL_GPIO_Init
 250              	.LVL7:
 133:Src/gpio.c    **** 
 134:Src/gpio.c    ****   /*Configure GPIO pins : PC10 PC12 */
 135:Src/gpio.c    ****   GPIO_InitStruct.Pin = GPIO_PIN_10|GPIO_PIN_12;
 251              		.loc 1 135 3 view .LVU86
 136:Src/gpio.c    ****   GPIO_InitStruct.Mode = GPIO_MODE_ANALOG;
 252              		.loc 1 136 3 view .LVU87
 137:Src/gpio.c    ****   GPIO_InitStruct.Pull = GPIO_NOPULL;
 138:Src/gpio.c    ****   HAL_GPIO_Init(GPIOC, &GPIO_InitStruct);
 253              		.loc 1 138 3 is_stmt 0 view .LVU88
 254 0108 06A9     		add	r1, sp, #24
 255 010a 2846     		mov	r0, r5
 135:Src/gpio.c    ****   GPIO_InitStruct.Mode = GPIO_MODE_ANALOG;
 256              		.loc 1 135 23 view .LVU89
 257 010c 4FF4A052 		mov	r2, #5120
 258 0110 0323     		movs	r3, #3
 259 0112 CDE90623 		strd	r2, [sp, #24]
 137:Src/gpio.c    ****   GPIO_InitStruct.Pull = GPIO_NOPULL;
 260              		.loc 1 137 3 is_stmt 1 view .LVU90
 261              		.loc 1 138 3 view .LVU91
 137:Src/gpio.c    ****   GPIO_InitStruct.Pull = GPIO_NOPULL;
 262              		.loc 1 137 24 is_stmt 0 view .LVU92
 263 0116 0894     		str	r4, [sp, #32]
 264              		.loc 1 138 3 view .LVU93
 265 0118 FFF7FEFF 		bl	HAL_GPIO_Init
 266              	.LVL8:
 139:Src/gpio.c    **** 
 140:Src/gpio.c    ****   /*Configure GPIO pin : PtPin */
 141:Src/gpio.c    ****   GPIO_InitStruct.Pin = LCD_E_Pin;
 267              		.loc 1 141 3 is_stmt 1 view .LVU94
 142:Src/gpio.c    ****   GPIO_InitStruct.Mode = GPIO_MODE_INPUT;
 268              		.loc 1 142 3 view .LVU95
ARM GAS  /tmp/ccLHB6Yu.s 			page 9


 143:Src/gpio.c    ****   GPIO_InitStruct.Pull = GPIO_NOPULL;
 144:Src/gpio.c    ****   HAL_GPIO_Init(LCD_E_GPIO_Port, &GPIO_InitStruct);
 269              		.loc 1 144 3 is_stmt 0 view .LVU96
 270 011c 2846     		mov	r0, r5
 271 011e 06A9     		add	r1, sp, #24
 141:Src/gpio.c    ****   GPIO_InitStruct.Mode = GPIO_MODE_INPUT;
 272              		.loc 1 141 23 view .LVU97
 273 0120 4FF40062 		mov	r2, #2048
 274 0124 0023     		movs	r3, #0
 275 0126 CDE90623 		strd	r2, [sp, #24]
 143:Src/gpio.c    ****   GPIO_InitStruct.Pull = GPIO_NOPULL;
 276              		.loc 1 143 3 is_stmt 1 view .LVU98
 277              		.loc 1 144 3 view .LVU99
 143:Src/gpio.c    ****   GPIO_InitStruct.Pull = GPIO_NOPULL;
 278              		.loc 1 143 24 is_stmt 0 view .LVU100
 279 012a 0894     		str	r4, [sp, #32]
 280              		.loc 1 144 3 view .LVU101
 281 012c FFF7FEFF 		bl	HAL_GPIO_Init
 282              	.LVL9:
 145:Src/gpio.c    **** 
 146:Src/gpio.c    ****   /*Configure GPIO pin : PD2 */
 147:Src/gpio.c    ****   GPIO_InitStruct.Pin = GPIO_PIN_2;
 283              		.loc 1 147 3 is_stmt 1 view .LVU102
 148:Src/gpio.c    ****   GPIO_InitStruct.Mode = GPIO_MODE_ANALOG;
 284              		.loc 1 148 3 view .LVU103
 147:Src/gpio.c    ****   GPIO_InitStruct.Mode = GPIO_MODE_ANALOG;
 285              		.loc 1 147 23 is_stmt 0 view .LVU104
 286 0130 0422     		movs	r2, #4
 287 0132 0323     		movs	r3, #3
 149:Src/gpio.c    ****   GPIO_InitStruct.Pull = GPIO_NOPULL;
 150:Src/gpio.c    ****   HAL_GPIO_Init(GPIOD, &GPIO_InitStruct);
 288              		.loc 1 150 3 view .LVU105
 289 0134 06A9     		add	r1, sp, #24
 290 0136 0A48     		ldr	r0, .L4+24
 149:Src/gpio.c    ****   GPIO_InitStruct.Pull = GPIO_NOPULL;
 291              		.loc 1 149 24 view .LVU106
 292 0138 0894     		str	r4, [sp, #32]
 147:Src/gpio.c    ****   GPIO_InitStruct.Mode = GPIO_MODE_ANALOG;
 293              		.loc 1 147 23 view .LVU107
 294 013a CDE90623 		strd	r2, [sp, #24]
 149:Src/gpio.c    ****   GPIO_InitStruct.Pull = GPIO_NOPULL;
 295              		.loc 1 149 3 is_stmt 1 view .LVU108
 296              		.loc 1 150 3 view .LVU109
 297 013e FFF7FEFF 		bl	HAL_GPIO_Init
 298              	.LVL10:
 151:Src/gpio.c    **** 
 152:Src/gpio.c    **** }
 299              		.loc 1 152 1 is_stmt 0 view .LVU110
 300 0142 0CB0     		add	sp, sp, #48
 301              	.LCFI2:
 302              		.cfi_def_cfa_offset 24
 303              		@ sp needed
 304 0144 BDE87083 		pop	{r4, r5, r6, r8, r9, pc}
 305              	.L5:
 306              		.align	2
 307              	.L4:
 308 0148 00380240 		.word	1073887232
ARM GAS  /tmp/ccLHB6Yu.s 			page 10


 309 014c 00080240 		.word	1073874944
 310 0150 00000240 		.word	1073872896
 311 0154 00002110 		.word	270598144
 312 0158 00001110 		.word	269549568
 313 015c 00040240 		.word	1073873920
 314 0160 000C0240 		.word	1073875968
 315              		.cfi_endproc
 316              	.LFE126:
 318              		.text
 319              	.Letext0:
 320              		.file 2 "/usr/arm-none-eabi/include/machine/_default_types.h"
 321              		.file 3 "/usr/arm-none-eabi/include/sys/_stdint.h"
 322              		.file 4 "Drivers/CMSIS/Include/core_cm4.h"
 323              		.file 5 "Drivers/CMSIS/Device/ST/STM32F4xx/Include/system_stm32f4xx.h"
 324              		.file 6 "Drivers/CMSIS/Device/ST/STM32F4xx/Include/stm32f401xe.h"
 325              		.file 7 "/usr/arm-none-eabi/include/sys/lock.h"
 326              		.file 8 "/usr/arm-none-eabi/include/sys/_types.h"
 327              		.file 9 "/usr/lib/gcc/arm-none-eabi/8.2.0/include/stddef.h"
 328              		.file 10 "/usr/arm-none-eabi/include/sys/reent.h"
 329              		.file 11 "Drivers/STM32F4xx_HAL_Driver/Inc/stm32f4xx_hal_gpio.h"
ARM GAS  /tmp/ccLHB6Yu.s 			page 11


DEFINED SYMBOLS
                            *ABS*:0000000000000000 gpio.c
     /tmp/ccLHB6Yu.s:18     .text.MX_GPIO_Init:0000000000000000 $t
     /tmp/ccLHB6Yu.s:27     .text.MX_GPIO_Init:0000000000000000 MX_GPIO_Init
     /tmp/ccLHB6Yu.s:308    .text.MX_GPIO_Init:0000000000000148 $d

UNDEFINED SYMBOLS
HAL_GPIO_WritePin
HAL_GPIO_Init
