ARM GAS  /tmp/ccooWk4N.s 			page 1


   1              		.cpu cortex-m4
   2              		.eabi_attribute 27, 1
   3              		.eabi_attribute 28, 1
   4              		.eabi_attribute 20, 1
   5              		.eabi_attribute 21, 1
   6              		.eabi_attribute 23, 3
   7              		.eabi_attribute 24, 1
   8              		.eabi_attribute 25, 1
   9              		.eabi_attribute 26, 1
  10              		.eabi_attribute 30, 2
  11              		.eabi_attribute 34, 1
  12              		.eabi_attribute 18, 4
  13              		.file	"stm32f4xx_hal_dma_ex.c"
  14              		.text
  15              	.Ltext0:
  16              		.cfi_sections	.debug_frame
  17              		.section	.text.HAL_DMAEx_MultiBufferStart,"ax",%progbits
  18              		.align	1
  19              		.p2align 2,,3
  20              		.global	HAL_DMAEx_MultiBufferStart
  21              		.arch armv7e-m
  22              		.syntax unified
  23              		.thumb
  24              		.thumb_func
  25              		.fpu fpv4-sp-d16
  27              	HAL_DMAEx_MultiBufferStart:
  28              	.LVL0:
  29              	.LFB126:
  30              		.file 1 "Drivers/STM32F4xx_HAL_Driver/Src/stm32f4xx_hal_dma_ex.c"
   1:Drivers/STM32F4xx_HAL_Driver/Src/stm32f4xx_hal_dma_ex.c **** /**
   2:Drivers/STM32F4xx_HAL_Driver/Src/stm32f4xx_hal_dma_ex.c ****   ******************************************************************************
   3:Drivers/STM32F4xx_HAL_Driver/Src/stm32f4xx_hal_dma_ex.c ****   * @file    stm32f4xx_hal_dma_ex.c
   4:Drivers/STM32F4xx_HAL_Driver/Src/stm32f4xx_hal_dma_ex.c ****   * @author  MCD Application Team
   5:Drivers/STM32F4xx_HAL_Driver/Src/stm32f4xx_hal_dma_ex.c ****   * @brief   DMA Extension HAL module driver
   6:Drivers/STM32F4xx_HAL_Driver/Src/stm32f4xx_hal_dma_ex.c ****   *         This file provides firmware functions to manage the following 
   7:Drivers/STM32F4xx_HAL_Driver/Src/stm32f4xx_hal_dma_ex.c ****   *         functionalities of the DMA Extension peripheral:
   8:Drivers/STM32F4xx_HAL_Driver/Src/stm32f4xx_hal_dma_ex.c ****   *           + Extended features functions
   9:Drivers/STM32F4xx_HAL_Driver/Src/stm32f4xx_hal_dma_ex.c ****   *
  10:Drivers/STM32F4xx_HAL_Driver/Src/stm32f4xx_hal_dma_ex.c ****   @verbatim
  11:Drivers/STM32F4xx_HAL_Driver/Src/stm32f4xx_hal_dma_ex.c ****   ==============================================================================
  12:Drivers/STM32F4xx_HAL_Driver/Src/stm32f4xx_hal_dma_ex.c ****                         ##### How to use this driver #####
  13:Drivers/STM32F4xx_HAL_Driver/Src/stm32f4xx_hal_dma_ex.c ****   ==============================================================================
  14:Drivers/STM32F4xx_HAL_Driver/Src/stm32f4xx_hal_dma_ex.c ****   [..]
  15:Drivers/STM32F4xx_HAL_Driver/Src/stm32f4xx_hal_dma_ex.c ****   The DMA Extension HAL driver can be used as follows:
  16:Drivers/STM32F4xx_HAL_Driver/Src/stm32f4xx_hal_dma_ex.c ****    (#) Start a multi buffer transfer using the HAL_DMA_MultiBufferStart() function
  17:Drivers/STM32F4xx_HAL_Driver/Src/stm32f4xx_hal_dma_ex.c ****        for polling mode or HAL_DMA_MultiBufferStart_IT() for interrupt mode.
  18:Drivers/STM32F4xx_HAL_Driver/Src/stm32f4xx_hal_dma_ex.c ****                    
  19:Drivers/STM32F4xx_HAL_Driver/Src/stm32f4xx_hal_dma_ex.c ****      -@-  In Memory-to-Memory transfer mode, Multi (Double) Buffer mode is not allowed.
  20:Drivers/STM32F4xx_HAL_Driver/Src/stm32f4xx_hal_dma_ex.c ****      -@-  When Multi (Double) Buffer mode is enabled the, transfer is circular by default.
  21:Drivers/STM32F4xx_HAL_Driver/Src/stm32f4xx_hal_dma_ex.c ****      -@-  In Multi (Double) buffer mode, it is possible to update the base address for 
  22:Drivers/STM32F4xx_HAL_Driver/Src/stm32f4xx_hal_dma_ex.c ****           the AHB memory port on the fly (DMA_SxM0AR or DMA_SxM1AR) when the stream is enabled. 
  23:Drivers/STM32F4xx_HAL_Driver/Src/stm32f4xx_hal_dma_ex.c ****   
  24:Drivers/STM32F4xx_HAL_Driver/Src/stm32f4xx_hal_dma_ex.c ****   @endverbatim
  25:Drivers/STM32F4xx_HAL_Driver/Src/stm32f4xx_hal_dma_ex.c ****   ******************************************************************************
  26:Drivers/STM32F4xx_HAL_Driver/Src/stm32f4xx_hal_dma_ex.c ****   * @attention
  27:Drivers/STM32F4xx_HAL_Driver/Src/stm32f4xx_hal_dma_ex.c ****   *
  28:Drivers/STM32F4xx_HAL_Driver/Src/stm32f4xx_hal_dma_ex.c ****   * <h2><center>&copy; COPYRIGHT(c) 2017 STMicroelectronics</center></h2>
ARM GAS  /tmp/ccooWk4N.s 			page 2


  29:Drivers/STM32F4xx_HAL_Driver/Src/stm32f4xx_hal_dma_ex.c ****   *
  30:Drivers/STM32F4xx_HAL_Driver/Src/stm32f4xx_hal_dma_ex.c ****   * Redistribution and use in source and binary forms, with or without modification,
  31:Drivers/STM32F4xx_HAL_Driver/Src/stm32f4xx_hal_dma_ex.c ****   * are permitted provided that the following conditions are met:
  32:Drivers/STM32F4xx_HAL_Driver/Src/stm32f4xx_hal_dma_ex.c ****   *   1. Redistributions of source code must retain the above copyright notice,
  33:Drivers/STM32F4xx_HAL_Driver/Src/stm32f4xx_hal_dma_ex.c ****   *      this list of conditions and the following disclaimer.
  34:Drivers/STM32F4xx_HAL_Driver/Src/stm32f4xx_hal_dma_ex.c ****   *   2. Redistributions in binary form must reproduce the above copyright notice,
  35:Drivers/STM32F4xx_HAL_Driver/Src/stm32f4xx_hal_dma_ex.c ****   *      this list of conditions and the following disclaimer in the documentation
  36:Drivers/STM32F4xx_HAL_Driver/Src/stm32f4xx_hal_dma_ex.c ****   *      and/or other materials provided with the distribution.
  37:Drivers/STM32F4xx_HAL_Driver/Src/stm32f4xx_hal_dma_ex.c ****   *   3. Neither the name of STMicroelectronics nor the names of its contributors
  38:Drivers/STM32F4xx_HAL_Driver/Src/stm32f4xx_hal_dma_ex.c ****   *      may be used to endorse or promote products derived from this software
  39:Drivers/STM32F4xx_HAL_Driver/Src/stm32f4xx_hal_dma_ex.c ****   *      without specific prior written permission.
  40:Drivers/STM32F4xx_HAL_Driver/Src/stm32f4xx_hal_dma_ex.c ****   *
  41:Drivers/STM32F4xx_HAL_Driver/Src/stm32f4xx_hal_dma_ex.c ****   * THIS SOFTWARE IS PROVIDED BY THE COPYRIGHT HOLDERS AND CONTRIBUTORS "AS IS"
  42:Drivers/STM32F4xx_HAL_Driver/Src/stm32f4xx_hal_dma_ex.c ****   * AND ANY EXPRESS OR IMPLIED WARRANTIES, INCLUDING, BUT NOT LIMITED TO, THE
  43:Drivers/STM32F4xx_HAL_Driver/Src/stm32f4xx_hal_dma_ex.c ****   * IMPLIED WARRANTIES OF MERCHANTABILITY AND FITNESS FOR A PARTICULAR PURPOSE ARE
  44:Drivers/STM32F4xx_HAL_Driver/Src/stm32f4xx_hal_dma_ex.c ****   * DISCLAIMED. IN NO EVENT SHALL THE COPYRIGHT HOLDER OR CONTRIBUTORS BE LIABLE
  45:Drivers/STM32F4xx_HAL_Driver/Src/stm32f4xx_hal_dma_ex.c ****   * FOR ANY DIRECT, INDIRECT, INCIDENTAL, SPECIAL, EXEMPLARY, OR CONSEQUENTIAL
  46:Drivers/STM32F4xx_HAL_Driver/Src/stm32f4xx_hal_dma_ex.c ****   * DAMAGES (INCLUDING, BUT NOT LIMITED TO, PROCUREMENT OF SUBSTITUTE GOODS OR
  47:Drivers/STM32F4xx_HAL_Driver/Src/stm32f4xx_hal_dma_ex.c ****   * SERVICES; LOSS OF USE, DATA, OR PROFITS; OR BUSINESS INTERRUPTION) HOWEVER
  48:Drivers/STM32F4xx_HAL_Driver/Src/stm32f4xx_hal_dma_ex.c ****   * CAUSED AND ON ANY THEORY OF LIABILITY, WHETHER IN CONTRACT, STRICT LIABILITY,
  49:Drivers/STM32F4xx_HAL_Driver/Src/stm32f4xx_hal_dma_ex.c ****   * OR TORT (INCLUDING NEGLIGENCE OR OTHERWISE) ARISING IN ANY WAY OUT OF THE USE
  50:Drivers/STM32F4xx_HAL_Driver/Src/stm32f4xx_hal_dma_ex.c ****   * OF THIS SOFTWARE, EVEN IF ADVISED OF THE POSSIBILITY OF SUCH DAMAGE.
  51:Drivers/STM32F4xx_HAL_Driver/Src/stm32f4xx_hal_dma_ex.c ****   *
  52:Drivers/STM32F4xx_HAL_Driver/Src/stm32f4xx_hal_dma_ex.c ****   ******************************************************************************
  53:Drivers/STM32F4xx_HAL_Driver/Src/stm32f4xx_hal_dma_ex.c ****   */
  54:Drivers/STM32F4xx_HAL_Driver/Src/stm32f4xx_hal_dma_ex.c **** 
  55:Drivers/STM32F4xx_HAL_Driver/Src/stm32f4xx_hal_dma_ex.c **** /* Includes ------------------------------------------------------------------*/
  56:Drivers/STM32F4xx_HAL_Driver/Src/stm32f4xx_hal_dma_ex.c **** #include "stm32f4xx_hal.h"
  57:Drivers/STM32F4xx_HAL_Driver/Src/stm32f4xx_hal_dma_ex.c **** 
  58:Drivers/STM32F4xx_HAL_Driver/Src/stm32f4xx_hal_dma_ex.c **** /** @addtogroup STM32F4xx_HAL_Driver
  59:Drivers/STM32F4xx_HAL_Driver/Src/stm32f4xx_hal_dma_ex.c ****   * @{
  60:Drivers/STM32F4xx_HAL_Driver/Src/stm32f4xx_hal_dma_ex.c ****   */
  61:Drivers/STM32F4xx_HAL_Driver/Src/stm32f4xx_hal_dma_ex.c **** 
  62:Drivers/STM32F4xx_HAL_Driver/Src/stm32f4xx_hal_dma_ex.c **** /** @defgroup DMAEx DMAEx
  63:Drivers/STM32F4xx_HAL_Driver/Src/stm32f4xx_hal_dma_ex.c ****   * @brief DMA Extended HAL module driver
  64:Drivers/STM32F4xx_HAL_Driver/Src/stm32f4xx_hal_dma_ex.c ****   * @{
  65:Drivers/STM32F4xx_HAL_Driver/Src/stm32f4xx_hal_dma_ex.c ****   */
  66:Drivers/STM32F4xx_HAL_Driver/Src/stm32f4xx_hal_dma_ex.c **** 
  67:Drivers/STM32F4xx_HAL_Driver/Src/stm32f4xx_hal_dma_ex.c **** #ifdef HAL_DMA_MODULE_ENABLED
  68:Drivers/STM32F4xx_HAL_Driver/Src/stm32f4xx_hal_dma_ex.c **** 
  69:Drivers/STM32F4xx_HAL_Driver/Src/stm32f4xx_hal_dma_ex.c **** /* Private types -------------------------------------------------------------*/
  70:Drivers/STM32F4xx_HAL_Driver/Src/stm32f4xx_hal_dma_ex.c **** /* Private variables ---------------------------------------------------------*/
  71:Drivers/STM32F4xx_HAL_Driver/Src/stm32f4xx_hal_dma_ex.c **** /* Private Constants ---------------------------------------------------------*/
  72:Drivers/STM32F4xx_HAL_Driver/Src/stm32f4xx_hal_dma_ex.c **** /* Private macros ------------------------------------------------------------*/
  73:Drivers/STM32F4xx_HAL_Driver/Src/stm32f4xx_hal_dma_ex.c **** /* Private functions ---------------------------------------------------------*/
  74:Drivers/STM32F4xx_HAL_Driver/Src/stm32f4xx_hal_dma_ex.c **** /** @addtogroup DMAEx_Private_Functions
  75:Drivers/STM32F4xx_HAL_Driver/Src/stm32f4xx_hal_dma_ex.c ****   * @{
  76:Drivers/STM32F4xx_HAL_Driver/Src/stm32f4xx_hal_dma_ex.c ****   */
  77:Drivers/STM32F4xx_HAL_Driver/Src/stm32f4xx_hal_dma_ex.c **** static void DMA_MultiBufferSetConfig(DMA_HandleTypeDef *hdma, uint32_t SrcAddress, uint32_t DstAddr
  78:Drivers/STM32F4xx_HAL_Driver/Src/stm32f4xx_hal_dma_ex.c **** /**
  79:Drivers/STM32F4xx_HAL_Driver/Src/stm32f4xx_hal_dma_ex.c ****   * @}
  80:Drivers/STM32F4xx_HAL_Driver/Src/stm32f4xx_hal_dma_ex.c ****   */
  81:Drivers/STM32F4xx_HAL_Driver/Src/stm32f4xx_hal_dma_ex.c **** 
  82:Drivers/STM32F4xx_HAL_Driver/Src/stm32f4xx_hal_dma_ex.c **** /* Exported functions ---------------------------------------------------------*/
  83:Drivers/STM32F4xx_HAL_Driver/Src/stm32f4xx_hal_dma_ex.c **** 
  84:Drivers/STM32F4xx_HAL_Driver/Src/stm32f4xx_hal_dma_ex.c **** /** @addtogroup DMAEx_Exported_Functions
  85:Drivers/STM32F4xx_HAL_Driver/Src/stm32f4xx_hal_dma_ex.c ****   * @{
ARM GAS  /tmp/ccooWk4N.s 			page 3


  86:Drivers/STM32F4xx_HAL_Driver/Src/stm32f4xx_hal_dma_ex.c ****   */
  87:Drivers/STM32F4xx_HAL_Driver/Src/stm32f4xx_hal_dma_ex.c **** 
  88:Drivers/STM32F4xx_HAL_Driver/Src/stm32f4xx_hal_dma_ex.c **** 
  89:Drivers/STM32F4xx_HAL_Driver/Src/stm32f4xx_hal_dma_ex.c **** /** @addtogroup DMAEx_Exported_Functions_Group1
  90:Drivers/STM32F4xx_HAL_Driver/Src/stm32f4xx_hal_dma_ex.c ****   *
  91:Drivers/STM32F4xx_HAL_Driver/Src/stm32f4xx_hal_dma_ex.c **** @verbatim   
  92:Drivers/STM32F4xx_HAL_Driver/Src/stm32f4xx_hal_dma_ex.c ****  ===============================================================================
  93:Drivers/STM32F4xx_HAL_Driver/Src/stm32f4xx_hal_dma_ex.c ****                 #####  Extended features functions  #####
  94:Drivers/STM32F4xx_HAL_Driver/Src/stm32f4xx_hal_dma_ex.c ****  ===============================================================================  
  95:Drivers/STM32F4xx_HAL_Driver/Src/stm32f4xx_hal_dma_ex.c ****     [..]  This section provides functions allowing to:
  96:Drivers/STM32F4xx_HAL_Driver/Src/stm32f4xx_hal_dma_ex.c ****       (+) Configure the source, destination address and data length and 
  97:Drivers/STM32F4xx_HAL_Driver/Src/stm32f4xx_hal_dma_ex.c ****           Start MultiBuffer DMA transfer
  98:Drivers/STM32F4xx_HAL_Driver/Src/stm32f4xx_hal_dma_ex.c ****       (+) Configure the source, destination address and data length and 
  99:Drivers/STM32F4xx_HAL_Driver/Src/stm32f4xx_hal_dma_ex.c ****           Start MultiBuffer DMA transfer with interrupt
 100:Drivers/STM32F4xx_HAL_Driver/Src/stm32f4xx_hal_dma_ex.c ****       (+) Change on the fly the memory0 or memory1 address.
 101:Drivers/STM32F4xx_HAL_Driver/Src/stm32f4xx_hal_dma_ex.c ****       
 102:Drivers/STM32F4xx_HAL_Driver/Src/stm32f4xx_hal_dma_ex.c **** @endverbatim
 103:Drivers/STM32F4xx_HAL_Driver/Src/stm32f4xx_hal_dma_ex.c ****   * @{
 104:Drivers/STM32F4xx_HAL_Driver/Src/stm32f4xx_hal_dma_ex.c ****   */
 105:Drivers/STM32F4xx_HAL_Driver/Src/stm32f4xx_hal_dma_ex.c **** 
 106:Drivers/STM32F4xx_HAL_Driver/Src/stm32f4xx_hal_dma_ex.c **** 
 107:Drivers/STM32F4xx_HAL_Driver/Src/stm32f4xx_hal_dma_ex.c **** /**
 108:Drivers/STM32F4xx_HAL_Driver/Src/stm32f4xx_hal_dma_ex.c ****   * @brief  Starts the multi_buffer DMA Transfer.
 109:Drivers/STM32F4xx_HAL_Driver/Src/stm32f4xx_hal_dma_ex.c ****   * @param  hdma       pointer to a DMA_HandleTypeDef structure that contains
 110:Drivers/STM32F4xx_HAL_Driver/Src/stm32f4xx_hal_dma_ex.c ****   *                     the configuration information for the specified DMA Stream.  
 111:Drivers/STM32F4xx_HAL_Driver/Src/stm32f4xx_hal_dma_ex.c ****   * @param  SrcAddress The source memory Buffer address
 112:Drivers/STM32F4xx_HAL_Driver/Src/stm32f4xx_hal_dma_ex.c ****   * @param  DstAddress The destination memory Buffer address
 113:Drivers/STM32F4xx_HAL_Driver/Src/stm32f4xx_hal_dma_ex.c ****   * @param  SecondMemAddress The second memory Buffer address in case of multi buffer Transfer  
 114:Drivers/STM32F4xx_HAL_Driver/Src/stm32f4xx_hal_dma_ex.c ****   * @param  DataLength The length of data to be transferred from source to destination
 115:Drivers/STM32F4xx_HAL_Driver/Src/stm32f4xx_hal_dma_ex.c ****   * @retval HAL status
 116:Drivers/STM32F4xx_HAL_Driver/Src/stm32f4xx_hal_dma_ex.c ****   */
 117:Drivers/STM32F4xx_HAL_Driver/Src/stm32f4xx_hal_dma_ex.c **** HAL_StatusTypeDef HAL_DMAEx_MultiBufferStart(DMA_HandleTypeDef *hdma, uint32_t SrcAddress, uint32_t
 118:Drivers/STM32F4xx_HAL_Driver/Src/stm32f4xx_hal_dma_ex.c **** {
  31              		.loc 1 118 1 view -0
  32              		.cfi_startproc
  33              		@ args = 4, pretend = 0, frame = 0
  34              		@ frame_needed = 0, uses_anonymous_args = 0
  35              		@ link register save eliminated.
 119:Drivers/STM32F4xx_HAL_Driver/Src/stm32f4xx_hal_dma_ex.c ****   HAL_StatusTypeDef status = HAL_OK;
  36              		.loc 1 119 3 view .LVU1
 120:Drivers/STM32F4xx_HAL_Driver/Src/stm32f4xx_hal_dma_ex.c ****   
 121:Drivers/STM32F4xx_HAL_Driver/Src/stm32f4xx_hal_dma_ex.c ****   /* Check the parameters */
 122:Drivers/STM32F4xx_HAL_Driver/Src/stm32f4xx_hal_dma_ex.c ****   assert_param(IS_DMA_BUFFER_SIZE(DataLength));
  37              		.loc 1 122 3 view .LVU2
 123:Drivers/STM32F4xx_HAL_Driver/Src/stm32f4xx_hal_dma_ex.c ****   
 124:Drivers/STM32F4xx_HAL_Driver/Src/stm32f4xx_hal_dma_ex.c ****   /* Memory-to-memory transfer not supported in double buffering mode */
 125:Drivers/STM32F4xx_HAL_Driver/Src/stm32f4xx_hal_dma_ex.c ****   if (hdma->Init.Direction == DMA_MEMORY_TO_MEMORY)
  38              		.loc 1 125 3 view .LVU3
 118:Drivers/STM32F4xx_HAL_Driver/Src/stm32f4xx_hal_dma_ex.c ****   HAL_StatusTypeDef status = HAL_OK;
  39              		.loc 1 118 1 is_stmt 0 view .LVU4
  40 0000 70B4     		push	{r4, r5, r6}
  41              	.LCFI0:
  42              		.cfi_def_cfa_offset 12
  43              		.cfi_offset 4, -12
  44              		.cfi_offset 5, -8
  45              		.cfi_offset 6, -4
  46              		.loc 1 125 17 view .LVU5
ARM GAS  /tmp/ccooWk4N.s 			page 4


  47 0002 8568     		ldr	r5, [r0, #8]
  48              		.loc 1 125 6 view .LVU6
  49 0004 802D     		cmp	r5, #128
  50 0006 25D0     		beq	.L10
 126:Drivers/STM32F4xx_HAL_Driver/Src/stm32f4xx_hal_dma_ex.c ****   {
 127:Drivers/STM32F4xx_HAL_Driver/Src/stm32f4xx_hal_dma_ex.c ****     hdma->ErrorCode = HAL_DMA_ERROR_NOT_SUPPORTED;
 128:Drivers/STM32F4xx_HAL_Driver/Src/stm32f4xx_hal_dma_ex.c ****     status = HAL_ERROR;
 129:Drivers/STM32F4xx_HAL_Driver/Src/stm32f4xx_hal_dma_ex.c ****   }
 130:Drivers/STM32F4xx_HAL_Driver/Src/stm32f4xx_hal_dma_ex.c ****   else
 131:Drivers/STM32F4xx_HAL_Driver/Src/stm32f4xx_hal_dma_ex.c ****   {
 132:Drivers/STM32F4xx_HAL_Driver/Src/stm32f4xx_hal_dma_ex.c ****     /* Process Locked */
 133:Drivers/STM32F4xx_HAL_Driver/Src/stm32f4xx_hal_dma_ex.c ****     __HAL_LOCK(hdma);
  51              		.loc 1 133 5 is_stmt 1 view .LVU7
  52              		.loc 1 133 5 view .LVU8
  53 0008 90F83440 		ldrb	r4, [r0, #52]	@ zero_extendqisi2
  54 000c 012C     		cmp	r4, #1
  55 000e 06D0     		beq	.L5
  56              		.loc 1 133 5 discriminator 2 view .LVU9
 134:Drivers/STM32F4xx_HAL_Driver/Src/stm32f4xx_hal_dma_ex.c ****     
 135:Drivers/STM32F4xx_HAL_Driver/Src/stm32f4xx_hal_dma_ex.c ****     if(HAL_DMA_STATE_READY == hdma->State)
  57              		.loc 1 135 35 is_stmt 0 discriminator 2 view .LVU10
  58 0010 90F83540 		ldrb	r4, [r0, #53]	@ zero_extendqisi2
 133:Drivers/STM32F4xx_HAL_Driver/Src/stm32f4xx_hal_dma_ex.c ****     
  59              		.loc 1 133 5 discriminator 2 view .LVU11
  60 0014 0126     		movs	r6, #1
  61              		.loc 1 135 7 discriminator 2 view .LVU12
  62 0016 B442     		cmp	r4, r6
 133:Drivers/STM32F4xx_HAL_Driver/Src/stm32f4xx_hal_dma_ex.c ****     
  63              		.loc 1 133 5 discriminator 2 view .LVU13
  64 0018 80F83460 		strb	r6, [r0, #52]
  65              		.loc 1 135 5 is_stmt 1 discriminator 2 view .LVU14
  66              		.loc 1 135 7 is_stmt 0 discriminator 2 view .LVU15
  67 001c 02D0     		beq	.L11
  68              	.L5:
 133:Drivers/STM32F4xx_HAL_Driver/Src/stm32f4xx_hal_dma_ex.c ****     
  69              		.loc 1 133 5 view .LVU16
  70 001e 0220     		movs	r0, #2
  71              	.LVL1:
 136:Drivers/STM32F4xx_HAL_Driver/Src/stm32f4xx_hal_dma_ex.c ****     {
 137:Drivers/STM32F4xx_HAL_Driver/Src/stm32f4xx_hal_dma_ex.c ****       /* Change DMA peripheral state */
 138:Drivers/STM32F4xx_HAL_Driver/Src/stm32f4xx_hal_dma_ex.c ****       hdma->State = HAL_DMA_STATE_BUSY; 
 139:Drivers/STM32F4xx_HAL_Driver/Src/stm32f4xx_hal_dma_ex.c ****       
 140:Drivers/STM32F4xx_HAL_Driver/Src/stm32f4xx_hal_dma_ex.c ****       /* Enable the double buffer mode */
 141:Drivers/STM32F4xx_HAL_Driver/Src/stm32f4xx_hal_dma_ex.c ****       hdma->Instance->CR |= (uint32_t)DMA_SxCR_DBM;
 142:Drivers/STM32F4xx_HAL_Driver/Src/stm32f4xx_hal_dma_ex.c ****       
 143:Drivers/STM32F4xx_HAL_Driver/Src/stm32f4xx_hal_dma_ex.c ****       /* Configure DMA Stream destination address */
 144:Drivers/STM32F4xx_HAL_Driver/Src/stm32f4xx_hal_dma_ex.c ****       hdma->Instance->M1AR = SecondMemAddress;
 145:Drivers/STM32F4xx_HAL_Driver/Src/stm32f4xx_hal_dma_ex.c ****       
 146:Drivers/STM32F4xx_HAL_Driver/Src/stm32f4xx_hal_dma_ex.c ****       /* Configure the source, destination address and the data length */
 147:Drivers/STM32F4xx_HAL_Driver/Src/stm32f4xx_hal_dma_ex.c ****       DMA_MultiBufferSetConfig(hdma, SrcAddress, DstAddress, DataLength);
 148:Drivers/STM32F4xx_HAL_Driver/Src/stm32f4xx_hal_dma_ex.c ****       
 149:Drivers/STM32F4xx_HAL_Driver/Src/stm32f4xx_hal_dma_ex.c ****       /* Enable the peripheral */
 150:Drivers/STM32F4xx_HAL_Driver/Src/stm32f4xx_hal_dma_ex.c ****       __HAL_DMA_ENABLE(hdma);
 151:Drivers/STM32F4xx_HAL_Driver/Src/stm32f4xx_hal_dma_ex.c ****     }
 152:Drivers/STM32F4xx_HAL_Driver/Src/stm32f4xx_hal_dma_ex.c ****     else
 153:Drivers/STM32F4xx_HAL_Driver/Src/stm32f4xx_hal_dma_ex.c ****     {
 154:Drivers/STM32F4xx_HAL_Driver/Src/stm32f4xx_hal_dma_ex.c ****       /* Return error status */
ARM GAS  /tmp/ccooWk4N.s 			page 5


 155:Drivers/STM32F4xx_HAL_Driver/Src/stm32f4xx_hal_dma_ex.c ****       status = HAL_BUSY;
 156:Drivers/STM32F4xx_HAL_Driver/Src/stm32f4xx_hal_dma_ex.c ****     }
 157:Drivers/STM32F4xx_HAL_Driver/Src/stm32f4xx_hal_dma_ex.c ****   }
 158:Drivers/STM32F4xx_HAL_Driver/Src/stm32f4xx_hal_dma_ex.c ****   return status;
 159:Drivers/STM32F4xx_HAL_Driver/Src/stm32f4xx_hal_dma_ex.c **** }
  72              		.loc 1 159 1 view .LVU17
  73 0020 70BC     		pop	{r4, r5, r6}
  74              	.LCFI1:
  75              		.cfi_remember_state
  76              		.cfi_restore 6
  77              		.cfi_restore 5
  78              		.cfi_restore 4
  79              		.cfi_def_cfa_offset 0
  80              	.LVL2:
  81              		.loc 1 159 1 view .LVU18
  82 0022 7047     		bx	lr
  83              	.LVL3:
  84              	.L11:
  85              	.LCFI2:
  86              		.cfi_restore_state
 138:Drivers/STM32F4xx_HAL_Driver/Src/stm32f4xx_hal_dma_ex.c ****       
  87              		.loc 1 138 7 is_stmt 1 view .LVU19
 141:Drivers/STM32F4xx_HAL_Driver/Src/stm32f4xx_hal_dma_ex.c ****       
  88              		.loc 1 141 11 is_stmt 0 view .LVU20
  89 0024 0468     		ldr	r4, [r0]
 138:Drivers/STM32F4xx_HAL_Driver/Src/stm32f4xx_hal_dma_ex.c ****       
  90              		.loc 1 138 19 view .LVU21
  91 0026 0226     		movs	r6, #2
  92 0028 80F83560 		strb	r6, [r0, #53]
 141:Drivers/STM32F4xx_HAL_Driver/Src/stm32f4xx_hal_dma_ex.c ****       
  93              		.loc 1 141 7 is_stmt 1 view .LVU22
 141:Drivers/STM32F4xx_HAL_Driver/Src/stm32f4xx_hal_dma_ex.c ****       
  94              		.loc 1 141 26 is_stmt 0 view .LVU23
  95 002c 2068     		ldr	r0, [r4]
  96              	.LVL4:
 141:Drivers/STM32F4xx_HAL_Driver/Src/stm32f4xx_hal_dma_ex.c ****       
  97              		.loc 1 141 26 view .LVU24
  98 002e 40F48020 		orr	r0, r0, #262144
  99 0032 2060     		str	r0, [r4]
 144:Drivers/STM32F4xx_HAL_Driver/Src/stm32f4xx_hal_dma_ex.c ****       
 100              		.loc 1 144 7 is_stmt 1 view .LVU25
 101              	.LBB6:
 102              	.LBB7:
 160:Drivers/STM32F4xx_HAL_Driver/Src/stm32f4xx_hal_dma_ex.c **** 
 161:Drivers/STM32F4xx_HAL_Driver/Src/stm32f4xx_hal_dma_ex.c **** /**
 162:Drivers/STM32F4xx_HAL_Driver/Src/stm32f4xx_hal_dma_ex.c ****   * @brief  Starts the multi_buffer DMA Transfer with interrupt enabled.
 163:Drivers/STM32F4xx_HAL_Driver/Src/stm32f4xx_hal_dma_ex.c ****   * @param  hdma       pointer to a DMA_HandleTypeDef structure that contains
 164:Drivers/STM32F4xx_HAL_Driver/Src/stm32f4xx_hal_dma_ex.c ****   *                     the configuration information for the specified DMA Stream.  
 165:Drivers/STM32F4xx_HAL_Driver/Src/stm32f4xx_hal_dma_ex.c ****   * @param  SrcAddress The source memory Buffer address
 166:Drivers/STM32F4xx_HAL_Driver/Src/stm32f4xx_hal_dma_ex.c ****   * @param  DstAddress The destination memory Buffer address
 167:Drivers/STM32F4xx_HAL_Driver/Src/stm32f4xx_hal_dma_ex.c ****   * @param  SecondMemAddress The second memory Buffer address in case of multi buffer Transfer  
 168:Drivers/STM32F4xx_HAL_Driver/Src/stm32f4xx_hal_dma_ex.c ****   * @param  DataLength The length of data to be transferred from source to destination
 169:Drivers/STM32F4xx_HAL_Driver/Src/stm32f4xx_hal_dma_ex.c ****   * @retval HAL status
 170:Drivers/STM32F4xx_HAL_Driver/Src/stm32f4xx_hal_dma_ex.c ****   */
 171:Drivers/STM32F4xx_HAL_Driver/Src/stm32f4xx_hal_dma_ex.c **** HAL_StatusTypeDef HAL_DMAEx_MultiBufferStart_IT(DMA_HandleTypeDef *hdma, uint32_t SrcAddress, uint3
 172:Drivers/STM32F4xx_HAL_Driver/Src/stm32f4xx_hal_dma_ex.c **** {
 173:Drivers/STM32F4xx_HAL_Driver/Src/stm32f4xx_hal_dma_ex.c ****   HAL_StatusTypeDef status = HAL_OK;
ARM GAS  /tmp/ccooWk4N.s 			page 6


 174:Drivers/STM32F4xx_HAL_Driver/Src/stm32f4xx_hal_dma_ex.c ****   
 175:Drivers/STM32F4xx_HAL_Driver/Src/stm32f4xx_hal_dma_ex.c ****   /* Check the parameters */
 176:Drivers/STM32F4xx_HAL_Driver/Src/stm32f4xx_hal_dma_ex.c ****   assert_param(IS_DMA_BUFFER_SIZE(DataLength));
 177:Drivers/STM32F4xx_HAL_Driver/Src/stm32f4xx_hal_dma_ex.c ****   
 178:Drivers/STM32F4xx_HAL_Driver/Src/stm32f4xx_hal_dma_ex.c ****   /* Memory-to-memory transfer not supported in double buffering mode */
 179:Drivers/STM32F4xx_HAL_Driver/Src/stm32f4xx_hal_dma_ex.c ****   if (hdma->Init.Direction == DMA_MEMORY_TO_MEMORY)
 180:Drivers/STM32F4xx_HAL_Driver/Src/stm32f4xx_hal_dma_ex.c ****   {
 181:Drivers/STM32F4xx_HAL_Driver/Src/stm32f4xx_hal_dma_ex.c ****     hdma->ErrorCode = HAL_DMA_ERROR_NOT_SUPPORTED;
 182:Drivers/STM32F4xx_HAL_Driver/Src/stm32f4xx_hal_dma_ex.c ****     return HAL_ERROR;
 183:Drivers/STM32F4xx_HAL_Driver/Src/stm32f4xx_hal_dma_ex.c ****   }
 184:Drivers/STM32F4xx_HAL_Driver/Src/stm32f4xx_hal_dma_ex.c ****   
 185:Drivers/STM32F4xx_HAL_Driver/Src/stm32f4xx_hal_dma_ex.c ****   /* Check callback functions */
 186:Drivers/STM32F4xx_HAL_Driver/Src/stm32f4xx_hal_dma_ex.c ****   if ((NULL == hdma->XferCpltCallback) || (NULL == hdma->XferM1CpltCallback) || (NULL == hdma->Xfer
 187:Drivers/STM32F4xx_HAL_Driver/Src/stm32f4xx_hal_dma_ex.c ****   {
 188:Drivers/STM32F4xx_HAL_Driver/Src/stm32f4xx_hal_dma_ex.c ****     hdma->ErrorCode = HAL_DMA_ERROR_PARAM;
 189:Drivers/STM32F4xx_HAL_Driver/Src/stm32f4xx_hal_dma_ex.c ****     return HAL_ERROR;
 190:Drivers/STM32F4xx_HAL_Driver/Src/stm32f4xx_hal_dma_ex.c ****   }
 191:Drivers/STM32F4xx_HAL_Driver/Src/stm32f4xx_hal_dma_ex.c ****   
 192:Drivers/STM32F4xx_HAL_Driver/Src/stm32f4xx_hal_dma_ex.c ****   /* Process locked */
 193:Drivers/STM32F4xx_HAL_Driver/Src/stm32f4xx_hal_dma_ex.c ****   __HAL_LOCK(hdma);
 194:Drivers/STM32F4xx_HAL_Driver/Src/stm32f4xx_hal_dma_ex.c ****   
 195:Drivers/STM32F4xx_HAL_Driver/Src/stm32f4xx_hal_dma_ex.c ****   if(HAL_DMA_STATE_READY == hdma->State)
 196:Drivers/STM32F4xx_HAL_Driver/Src/stm32f4xx_hal_dma_ex.c ****   {
 197:Drivers/STM32F4xx_HAL_Driver/Src/stm32f4xx_hal_dma_ex.c ****     /* Change DMA peripheral state */
 198:Drivers/STM32F4xx_HAL_Driver/Src/stm32f4xx_hal_dma_ex.c ****     hdma->State = HAL_DMA_STATE_BUSY;
 199:Drivers/STM32F4xx_HAL_Driver/Src/stm32f4xx_hal_dma_ex.c ****     
 200:Drivers/STM32F4xx_HAL_Driver/Src/stm32f4xx_hal_dma_ex.c ****     /* Initialize the error code */
 201:Drivers/STM32F4xx_HAL_Driver/Src/stm32f4xx_hal_dma_ex.c ****     hdma->ErrorCode = HAL_DMA_ERROR_NONE;
 202:Drivers/STM32F4xx_HAL_Driver/Src/stm32f4xx_hal_dma_ex.c ****     
 203:Drivers/STM32F4xx_HAL_Driver/Src/stm32f4xx_hal_dma_ex.c ****     /* Enable the Double buffer mode */
 204:Drivers/STM32F4xx_HAL_Driver/Src/stm32f4xx_hal_dma_ex.c ****     hdma->Instance->CR |= (uint32_t)DMA_SxCR_DBM;
 205:Drivers/STM32F4xx_HAL_Driver/Src/stm32f4xx_hal_dma_ex.c ****     
 206:Drivers/STM32F4xx_HAL_Driver/Src/stm32f4xx_hal_dma_ex.c ****     /* Configure DMA Stream destination address */
 207:Drivers/STM32F4xx_HAL_Driver/Src/stm32f4xx_hal_dma_ex.c ****     hdma->Instance->M1AR = SecondMemAddress;
 208:Drivers/STM32F4xx_HAL_Driver/Src/stm32f4xx_hal_dma_ex.c ****     
 209:Drivers/STM32F4xx_HAL_Driver/Src/stm32f4xx_hal_dma_ex.c ****     /* Configure the source, destination address and the data length */
 210:Drivers/STM32F4xx_HAL_Driver/Src/stm32f4xx_hal_dma_ex.c ****     DMA_MultiBufferSetConfig(hdma, SrcAddress, DstAddress, DataLength); 
 211:Drivers/STM32F4xx_HAL_Driver/Src/stm32f4xx_hal_dma_ex.c ****     
 212:Drivers/STM32F4xx_HAL_Driver/Src/stm32f4xx_hal_dma_ex.c ****     /* Clear all flags */
 213:Drivers/STM32F4xx_HAL_Driver/Src/stm32f4xx_hal_dma_ex.c ****     __HAL_DMA_CLEAR_FLAG (hdma, __HAL_DMA_GET_TC_FLAG_INDEX(hdma));
 214:Drivers/STM32F4xx_HAL_Driver/Src/stm32f4xx_hal_dma_ex.c ****     __HAL_DMA_CLEAR_FLAG (hdma, __HAL_DMA_GET_HT_FLAG_INDEX(hdma));
 215:Drivers/STM32F4xx_HAL_Driver/Src/stm32f4xx_hal_dma_ex.c ****     __HAL_DMA_CLEAR_FLAG (hdma, __HAL_DMA_GET_TE_FLAG_INDEX(hdma));
 216:Drivers/STM32F4xx_HAL_Driver/Src/stm32f4xx_hal_dma_ex.c ****     __HAL_DMA_CLEAR_FLAG (hdma, __HAL_DMA_GET_DME_FLAG_INDEX(hdma));
 217:Drivers/STM32F4xx_HAL_Driver/Src/stm32f4xx_hal_dma_ex.c ****     __HAL_DMA_CLEAR_FLAG (hdma, __HAL_DMA_GET_FE_FLAG_INDEX(hdma));
 218:Drivers/STM32F4xx_HAL_Driver/Src/stm32f4xx_hal_dma_ex.c **** 
 219:Drivers/STM32F4xx_HAL_Driver/Src/stm32f4xx_hal_dma_ex.c ****     /* Enable Common interrupts*/
 220:Drivers/STM32F4xx_HAL_Driver/Src/stm32f4xx_hal_dma_ex.c ****     hdma->Instance->CR  |= DMA_IT_TC | DMA_IT_TE | DMA_IT_DME;
 221:Drivers/STM32F4xx_HAL_Driver/Src/stm32f4xx_hal_dma_ex.c ****     hdma->Instance->FCR |= DMA_IT_FE;
 222:Drivers/STM32F4xx_HAL_Driver/Src/stm32f4xx_hal_dma_ex.c ****     
 223:Drivers/STM32F4xx_HAL_Driver/Src/stm32f4xx_hal_dma_ex.c ****     if((hdma->XferHalfCpltCallback != NULL) || (hdma->XferM1HalfCpltCallback != NULL))
 224:Drivers/STM32F4xx_HAL_Driver/Src/stm32f4xx_hal_dma_ex.c ****     {
 225:Drivers/STM32F4xx_HAL_Driver/Src/stm32f4xx_hal_dma_ex.c ****       hdma->Instance->CR  |= DMA_IT_HT;
 226:Drivers/STM32F4xx_HAL_Driver/Src/stm32f4xx_hal_dma_ex.c ****     }
 227:Drivers/STM32F4xx_HAL_Driver/Src/stm32f4xx_hal_dma_ex.c ****     
 228:Drivers/STM32F4xx_HAL_Driver/Src/stm32f4xx_hal_dma_ex.c ****     /* Enable the peripheral */
 229:Drivers/STM32F4xx_HAL_Driver/Src/stm32f4xx_hal_dma_ex.c ****     __HAL_DMA_ENABLE(hdma); 
 230:Drivers/STM32F4xx_HAL_Driver/Src/stm32f4xx_hal_dma_ex.c ****   }
ARM GAS  /tmp/ccooWk4N.s 			page 7


 231:Drivers/STM32F4xx_HAL_Driver/Src/stm32f4xx_hal_dma_ex.c ****   else
 232:Drivers/STM32F4xx_HAL_Driver/Src/stm32f4xx_hal_dma_ex.c ****   {     
 233:Drivers/STM32F4xx_HAL_Driver/Src/stm32f4xx_hal_dma_ex.c ****     /* Process unlocked */
 234:Drivers/STM32F4xx_HAL_Driver/Src/stm32f4xx_hal_dma_ex.c ****     __HAL_UNLOCK(hdma);	  
 235:Drivers/STM32F4xx_HAL_Driver/Src/stm32f4xx_hal_dma_ex.c ****     
 236:Drivers/STM32F4xx_HAL_Driver/Src/stm32f4xx_hal_dma_ex.c ****     /* Return error status */
 237:Drivers/STM32F4xx_HAL_Driver/Src/stm32f4xx_hal_dma_ex.c ****     status = HAL_BUSY;
 238:Drivers/STM32F4xx_HAL_Driver/Src/stm32f4xx_hal_dma_ex.c ****   }  
 239:Drivers/STM32F4xx_HAL_Driver/Src/stm32f4xx_hal_dma_ex.c ****   return status; 
 240:Drivers/STM32F4xx_HAL_Driver/Src/stm32f4xx_hal_dma_ex.c **** }
 241:Drivers/STM32F4xx_HAL_Driver/Src/stm32f4xx_hal_dma_ex.c **** 
 242:Drivers/STM32F4xx_HAL_Driver/Src/stm32f4xx_hal_dma_ex.c **** /**
 243:Drivers/STM32F4xx_HAL_Driver/Src/stm32f4xx_hal_dma_ex.c ****   * @brief  Change the memory0 or memory1 address on the fly.
 244:Drivers/STM32F4xx_HAL_Driver/Src/stm32f4xx_hal_dma_ex.c ****   * @param  hdma       pointer to a DMA_HandleTypeDef structure that contains
 245:Drivers/STM32F4xx_HAL_Driver/Src/stm32f4xx_hal_dma_ex.c ****   *                     the configuration information for the specified DMA Stream.  
 246:Drivers/STM32F4xx_HAL_Driver/Src/stm32f4xx_hal_dma_ex.c ****   * @param  Address    The new address
 247:Drivers/STM32F4xx_HAL_Driver/Src/stm32f4xx_hal_dma_ex.c ****   * @param  memory     the memory to be changed, This parameter can be one of 
 248:Drivers/STM32F4xx_HAL_Driver/Src/stm32f4xx_hal_dma_ex.c ****   *                     the following values:
 249:Drivers/STM32F4xx_HAL_Driver/Src/stm32f4xx_hal_dma_ex.c ****   *                      MEMORY0 /
 250:Drivers/STM32F4xx_HAL_Driver/Src/stm32f4xx_hal_dma_ex.c ****   *                      MEMORY1
 251:Drivers/STM32F4xx_HAL_Driver/Src/stm32f4xx_hal_dma_ex.c ****   * @note   The MEMORY0 address can be changed only when the current transfer use
 252:Drivers/STM32F4xx_HAL_Driver/Src/stm32f4xx_hal_dma_ex.c ****   *         MEMORY1 and the MEMORY1 address can be changed only when the current 
 253:Drivers/STM32F4xx_HAL_Driver/Src/stm32f4xx_hal_dma_ex.c ****   *         transfer use MEMORY0.
 254:Drivers/STM32F4xx_HAL_Driver/Src/stm32f4xx_hal_dma_ex.c ****   * @retval HAL status
 255:Drivers/STM32F4xx_HAL_Driver/Src/stm32f4xx_hal_dma_ex.c ****   */
 256:Drivers/STM32F4xx_HAL_Driver/Src/stm32f4xx_hal_dma_ex.c **** HAL_StatusTypeDef HAL_DMAEx_ChangeMemory(DMA_HandleTypeDef *hdma, uint32_t Address, HAL_DMA_MemoryT
 257:Drivers/STM32F4xx_HAL_Driver/Src/stm32f4xx_hal_dma_ex.c **** {
 258:Drivers/STM32F4xx_HAL_Driver/Src/stm32f4xx_hal_dma_ex.c ****   if(memory == MEMORY0)
 259:Drivers/STM32F4xx_HAL_Driver/Src/stm32f4xx_hal_dma_ex.c ****   {
 260:Drivers/STM32F4xx_HAL_Driver/Src/stm32f4xx_hal_dma_ex.c ****     /* change the memory0 address */
 261:Drivers/STM32F4xx_HAL_Driver/Src/stm32f4xx_hal_dma_ex.c ****     hdma->Instance->M0AR = Address;
 262:Drivers/STM32F4xx_HAL_Driver/Src/stm32f4xx_hal_dma_ex.c ****   }
 263:Drivers/STM32F4xx_HAL_Driver/Src/stm32f4xx_hal_dma_ex.c ****   else
 264:Drivers/STM32F4xx_HAL_Driver/Src/stm32f4xx_hal_dma_ex.c ****   {
 265:Drivers/STM32F4xx_HAL_Driver/Src/stm32f4xx_hal_dma_ex.c ****     /* change the memory1 address */
 266:Drivers/STM32F4xx_HAL_Driver/Src/stm32f4xx_hal_dma_ex.c ****     hdma->Instance->M1AR = Address;
 267:Drivers/STM32F4xx_HAL_Driver/Src/stm32f4xx_hal_dma_ex.c ****   }
 268:Drivers/STM32F4xx_HAL_Driver/Src/stm32f4xx_hal_dma_ex.c **** 
 269:Drivers/STM32F4xx_HAL_Driver/Src/stm32f4xx_hal_dma_ex.c ****   return HAL_OK;
 270:Drivers/STM32F4xx_HAL_Driver/Src/stm32f4xx_hal_dma_ex.c **** }
 271:Drivers/STM32F4xx_HAL_Driver/Src/stm32f4xx_hal_dma_ex.c **** 
 272:Drivers/STM32F4xx_HAL_Driver/Src/stm32f4xx_hal_dma_ex.c **** /**
 273:Drivers/STM32F4xx_HAL_Driver/Src/stm32f4xx_hal_dma_ex.c ****   * @}
 274:Drivers/STM32F4xx_HAL_Driver/Src/stm32f4xx_hal_dma_ex.c ****   */
 275:Drivers/STM32F4xx_HAL_Driver/Src/stm32f4xx_hal_dma_ex.c **** 
 276:Drivers/STM32F4xx_HAL_Driver/Src/stm32f4xx_hal_dma_ex.c **** /**
 277:Drivers/STM32F4xx_HAL_Driver/Src/stm32f4xx_hal_dma_ex.c ****   * @}
 278:Drivers/STM32F4xx_HAL_Driver/Src/stm32f4xx_hal_dma_ex.c ****   */
 279:Drivers/STM32F4xx_HAL_Driver/Src/stm32f4xx_hal_dma_ex.c **** 
 280:Drivers/STM32F4xx_HAL_Driver/Src/stm32f4xx_hal_dma_ex.c **** /** @addtogroup DMAEx_Private_Functions
 281:Drivers/STM32F4xx_HAL_Driver/Src/stm32f4xx_hal_dma_ex.c ****   * @{
 282:Drivers/STM32F4xx_HAL_Driver/Src/stm32f4xx_hal_dma_ex.c ****   */
 283:Drivers/STM32F4xx_HAL_Driver/Src/stm32f4xx_hal_dma_ex.c **** 
 284:Drivers/STM32F4xx_HAL_Driver/Src/stm32f4xx_hal_dma_ex.c **** /**
 285:Drivers/STM32F4xx_HAL_Driver/Src/stm32f4xx_hal_dma_ex.c ****   * @brief  Set the DMA Transfer parameter.
 286:Drivers/STM32F4xx_HAL_Driver/Src/stm32f4xx_hal_dma_ex.c ****   * @param  hdma       pointer to a DMA_HandleTypeDef structure that contains
 287:Drivers/STM32F4xx_HAL_Driver/Src/stm32f4xx_hal_dma_ex.c ****   *                     the configuration information for the specified DMA Stream.  
ARM GAS  /tmp/ccooWk4N.s 			page 8


 288:Drivers/STM32F4xx_HAL_Driver/Src/stm32f4xx_hal_dma_ex.c ****   * @param  SrcAddress The source memory Buffer address
 289:Drivers/STM32F4xx_HAL_Driver/Src/stm32f4xx_hal_dma_ex.c ****   * @param  DstAddress The destination memory Buffer address
 290:Drivers/STM32F4xx_HAL_Driver/Src/stm32f4xx_hal_dma_ex.c ****   * @param  DataLength The length of data to be transferred from source to destination
 291:Drivers/STM32F4xx_HAL_Driver/Src/stm32f4xx_hal_dma_ex.c ****   * @retval HAL status
 292:Drivers/STM32F4xx_HAL_Driver/Src/stm32f4xx_hal_dma_ex.c ****   */
 293:Drivers/STM32F4xx_HAL_Driver/Src/stm32f4xx_hal_dma_ex.c **** static void DMA_MultiBufferSetConfig(DMA_HandleTypeDef *hdma, uint32_t SrcAddress, uint32_t DstAddr
 294:Drivers/STM32F4xx_HAL_Driver/Src/stm32f4xx_hal_dma_ex.c **** {  
 295:Drivers/STM32F4xx_HAL_Driver/Src/stm32f4xx_hal_dma_ex.c ****   /* Configure DMA Stream data length */
 296:Drivers/STM32F4xx_HAL_Driver/Src/stm32f4xx_hal_dma_ex.c ****   hdma->Instance->NDTR = DataLength;
 297:Drivers/STM32F4xx_HAL_Driver/Src/stm32f4xx_hal_dma_ex.c ****   
 298:Drivers/STM32F4xx_HAL_Driver/Src/stm32f4xx_hal_dma_ex.c ****   /* Peripheral to Memory */
 299:Drivers/STM32F4xx_HAL_Driver/Src/stm32f4xx_hal_dma_ex.c ****   if((hdma->Init.Direction) == DMA_MEMORY_TO_PERIPH)
 103              		.loc 1 299 5 is_stmt 0 view .LVU26
 104 0034 402D     		cmp	r5, #64
 105              	.LBE7:
 106              	.LBE6:
 144:Drivers/STM32F4xx_HAL_Driver/Src/stm32f4xx_hal_dma_ex.c ****       
 107              		.loc 1 144 28 view .LVU27
 108 0036 2361     		str	r3, [r4, #16]
 147:Drivers/STM32F4xx_HAL_Driver/Src/stm32f4xx_hal_dma_ex.c ****       
 109              		.loc 1 147 7 is_stmt 1 view .LVU28
 110              	.LVL5:
 111              	.LBB9:
 112              	.LBI6:
 293:Drivers/STM32F4xx_HAL_Driver/Src/stm32f4xx_hal_dma_ex.c **** {  
 113              		.loc 1 293 13 view .LVU29
 114              	.LBB8:
 296:Drivers/STM32F4xx_HAL_Driver/Src/stm32f4xx_hal_dma_ex.c ****   
 115              		.loc 1 296 3 view .LVU30
 296:Drivers/STM32F4xx_HAL_Driver/Src/stm32f4xx_hal_dma_ex.c ****   
 116              		.loc 1 296 24 is_stmt 0 view .LVU31
 117 0038 039B     		ldr	r3, [sp, #12]
 118              	.LVL6:
 296:Drivers/STM32F4xx_HAL_Driver/Src/stm32f4xx_hal_dma_ex.c ****   
 119              		.loc 1 296 24 view .LVU32
 120 003a 6360     		str	r3, [r4, #4]
 121              	.LVL7:
 122              		.loc 1 299 3 is_stmt 1 view .LVU33
 300:Drivers/STM32F4xx_HAL_Driver/Src/stm32f4xx_hal_dma_ex.c ****   {   
 301:Drivers/STM32F4xx_HAL_Driver/Src/stm32f4xx_hal_dma_ex.c ****     /* Configure DMA Stream destination address */
 302:Drivers/STM32F4xx_HAL_Driver/Src/stm32f4xx_hal_dma_ex.c ****     hdma->Instance->PAR = DstAddress;
 123              		.loc 1 302 5 view .LVU34
 124              		.loc 1 302 25 is_stmt 0 view .LVU35
 125 003c 0BBF     		itete	eq
 126 003e A260     		streq	r2, [r4, #8]
 303:Drivers/STM32F4xx_HAL_Driver/Src/stm32f4xx_hal_dma_ex.c ****     
 304:Drivers/STM32F4xx_HAL_Driver/Src/stm32f4xx_hal_dma_ex.c ****     /* Configure DMA Stream source address */
 305:Drivers/STM32F4xx_HAL_Driver/Src/stm32f4xx_hal_dma_ex.c ****     hdma->Instance->M0AR = SrcAddress;
 127              		.loc 1 305 5 is_stmt 1 view .LVU36
 306:Drivers/STM32F4xx_HAL_Driver/Src/stm32f4xx_hal_dma_ex.c ****   }
 307:Drivers/STM32F4xx_HAL_Driver/Src/stm32f4xx_hal_dma_ex.c ****   /* Memory to Peripheral */
 308:Drivers/STM32F4xx_HAL_Driver/Src/stm32f4xx_hal_dma_ex.c ****   else
 309:Drivers/STM32F4xx_HAL_Driver/Src/stm32f4xx_hal_dma_ex.c ****   {
 310:Drivers/STM32F4xx_HAL_Driver/Src/stm32f4xx_hal_dma_ex.c ****     /* Configure DMA Stream source address */
 311:Drivers/STM32F4xx_HAL_Driver/Src/stm32f4xx_hal_dma_ex.c ****     hdma->Instance->PAR = SrcAddress;
 128              		.loc 1 311 25 is_stmt 0 view .LVU37
 129 0040 A160     		strne	r1, [r4, #8]
ARM GAS  /tmp/ccooWk4N.s 			page 9


 305:Drivers/STM32F4xx_HAL_Driver/Src/stm32f4xx_hal_dma_ex.c ****   }
 130              		.loc 1 305 26 view .LVU38
 131 0042 E160     		streq	r1, [r4, #12]
 132              		.loc 1 311 5 is_stmt 1 view .LVU39
 312:Drivers/STM32F4xx_HAL_Driver/Src/stm32f4xx_hal_dma_ex.c ****     
 313:Drivers/STM32F4xx_HAL_Driver/Src/stm32f4xx_hal_dma_ex.c ****     /* Configure DMA Stream destination address */
 314:Drivers/STM32F4xx_HAL_Driver/Src/stm32f4xx_hal_dma_ex.c ****     hdma->Instance->M0AR = DstAddress;
 133              		.loc 1 314 5 view .LVU40
 134              		.loc 1 314 26 is_stmt 0 view .LVU41
 135 0044 E260     		strne	r2, [r4, #12]
 136              	.LVL8:
 137              		.loc 1 314 26 view .LVU42
 138              	.LBE8:
 139              	.LBE9:
 150:Drivers/STM32F4xx_HAL_Driver/Src/stm32f4xx_hal_dma_ex.c ****     }
 140              		.loc 1 150 7 is_stmt 1 view .LVU43
 141 0046 2368     		ldr	r3, [r4]
 142 0048 43F00103 		orr	r3, r3, #1
 143 004c 2360     		str	r3, [r4]
 119:Drivers/STM32F4xx_HAL_Driver/Src/stm32f4xx_hal_dma_ex.c ****   
 144              		.loc 1 119 21 is_stmt 0 view .LVU44
 145 004e 0020     		movs	r0, #0
 159:Drivers/STM32F4xx_HAL_Driver/Src/stm32f4xx_hal_dma_ex.c **** 
 146              		.loc 1 159 1 view .LVU45
 147 0050 70BC     		pop	{r4, r5, r6}
 148              	.LCFI3:
 149              		.cfi_remember_state
 150              		.cfi_restore 6
 151              		.cfi_restore 5
 152              		.cfi_restore 4
 153              		.cfi_def_cfa_offset 0
 154              	.LVL9:
 159:Drivers/STM32F4xx_HAL_Driver/Src/stm32f4xx_hal_dma_ex.c **** 
 155              		.loc 1 159 1 view .LVU46
 156 0052 7047     		bx	lr
 157              	.LVL10:
 158              	.L10:
 159              	.LCFI4:
 160              		.cfi_restore_state
 127:Drivers/STM32F4xx_HAL_Driver/Src/stm32f4xx_hal_dma_ex.c ****     status = HAL_ERROR;
 161              		.loc 1 127 5 is_stmt 1 view .LVU47
 127:Drivers/STM32F4xx_HAL_Driver/Src/stm32f4xx_hal_dma_ex.c ****     status = HAL_ERROR;
 162              		.loc 1 127 21 is_stmt 0 view .LVU48
 163 0054 4FF48073 		mov	r3, #256
 164              	.LVL11:
 127:Drivers/STM32F4xx_HAL_Driver/Src/stm32f4xx_hal_dma_ex.c ****     status = HAL_ERROR;
 165              		.loc 1 127 21 view .LVU49
 166 0058 4365     		str	r3, [r0, #84]
 128:Drivers/STM32F4xx_HAL_Driver/Src/stm32f4xx_hal_dma_ex.c ****   }
 167              		.loc 1 128 5 is_stmt 1 view .LVU50
 168              	.LVL12:
 159:Drivers/STM32F4xx_HAL_Driver/Src/stm32f4xx_hal_dma_ex.c **** 
 169              		.loc 1 159 1 is_stmt 0 view .LVU51
 170 005a 70BC     		pop	{r4, r5, r6}
 171              	.LCFI5:
 172              		.cfi_restore 6
 173              		.cfi_restore 5
ARM GAS  /tmp/ccooWk4N.s 			page 10


 174              		.cfi_restore 4
 175              		.cfi_def_cfa_offset 0
 176              	.LVL13:
 128:Drivers/STM32F4xx_HAL_Driver/Src/stm32f4xx_hal_dma_ex.c ****   }
 177              		.loc 1 128 12 view .LVU52
 178 005c 0120     		movs	r0, #1
 179              	.LVL14:
 159:Drivers/STM32F4xx_HAL_Driver/Src/stm32f4xx_hal_dma_ex.c **** 
 180              		.loc 1 159 1 view .LVU53
 181 005e 7047     		bx	lr
 182              		.cfi_endproc
 183              	.LFE126:
 185              		.section	.text.HAL_DMAEx_MultiBufferStart_IT,"ax",%progbits
 186              		.align	1
 187              		.p2align 2,,3
 188              		.global	HAL_DMAEx_MultiBufferStart_IT
 189              		.syntax unified
 190              		.thumb
 191              		.thumb_func
 192              		.fpu fpv4-sp-d16
 194              	HAL_DMAEx_MultiBufferStart_IT:
 195              	.LVL15:
 196              	.LFB127:
 172:Drivers/STM32F4xx_HAL_Driver/Src/stm32f4xx_hal_dma_ex.c ****   HAL_StatusTypeDef status = HAL_OK;
 197              		.loc 1 172 1 is_stmt 1 view -0
 198              		.cfi_startproc
 199              		@ args = 4, pretend = 0, frame = 0
 200              		@ frame_needed = 0, uses_anonymous_args = 0
 201              		@ link register save eliminated.
 173:Drivers/STM32F4xx_HAL_Driver/Src/stm32f4xx_hal_dma_ex.c ****   
 202              		.loc 1 173 3 view .LVU55
 176:Drivers/STM32F4xx_HAL_Driver/Src/stm32f4xx_hal_dma_ex.c ****   
 203              		.loc 1 176 3 view .LVU56
 179:Drivers/STM32F4xx_HAL_Driver/Src/stm32f4xx_hal_dma_ex.c ****   {
 204              		.loc 1 179 3 view .LVU57
 172:Drivers/STM32F4xx_HAL_Driver/Src/stm32f4xx_hal_dma_ex.c ****   HAL_StatusTypeDef status = HAL_OK;
 205              		.loc 1 172 1 is_stmt 0 view .LVU58
 206 0000 F0B4     		push	{r4, r5, r6, r7}
 207              	.LCFI6:
 208              		.cfi_def_cfa_offset 16
 209              		.cfi_offset 4, -16
 210              		.cfi_offset 5, -12
 211              		.cfi_offset 6, -8
 212              		.cfi_offset 7, -4
 179:Drivers/STM32F4xx_HAL_Driver/Src/stm32f4xx_hal_dma_ex.c ****   {
 213              		.loc 1 179 17 view .LVU59
 214 0002 8568     		ldr	r5, [r0, #8]
 179:Drivers/STM32F4xx_HAL_Driver/Src/stm32f4xx_hal_dma_ex.c ****   {
 215              		.loc 1 179 6 view .LVU60
 216 0004 802D     		cmp	r5, #128
 217 0006 1CD0     		beq	.L98
 186:Drivers/STM32F4xx_HAL_Driver/Src/stm32f4xx_hal_dma_ex.c ****   {
 218              		.loc 1 186 3 is_stmt 1 view .LVU61
 186:Drivers/STM32F4xx_HAL_Driver/Src/stm32f4xx_hal_dma_ex.c ****   {
 219              		.loc 1 186 6 is_stmt 0 view .LVU62
 220 0008 C46B     		ldr	r4, [r0, #60]
 221 000a ACB1     		cbz	r4, .L15
ARM GAS  /tmp/ccooWk4N.s 			page 11


 186:Drivers/STM32F4xx_HAL_Driver/Src/stm32f4xx_hal_dma_ex.c ****   {
 222              		.loc 1 186 40 discriminator 1 view .LVU63
 223 000c 446C     		ldr	r4, [r0, #68]
 224 000e 9CB1     		cbz	r4, .L15
 186:Drivers/STM32F4xx_HAL_Driver/Src/stm32f4xx_hal_dma_ex.c ****   {
 225              		.loc 1 186 78 discriminator 2 view .LVU64
 226 0010 C46C     		ldr	r4, [r0, #76]
 227 0012 8CB1     		cbz	r4, .L15
 193:Drivers/STM32F4xx_HAL_Driver/Src/stm32f4xx_hal_dma_ex.c ****   
 228              		.loc 1 193 3 is_stmt 1 view .LVU65
 193:Drivers/STM32F4xx_HAL_Driver/Src/stm32f4xx_hal_dma_ex.c ****   
 229              		.loc 1 193 3 view .LVU66
 230 0014 90F83440 		ldrb	r4, [r0, #52]	@ zero_extendqisi2
 231 0018 012C     		cmp	r4, #1
 232 001a 00F0F080 		beq	.L82
 193:Drivers/STM32F4xx_HAL_Driver/Src/stm32f4xx_hal_dma_ex.c ****   
 233              		.loc 1 193 3 discriminator 2 view .LVU67
 195:Drivers/STM32F4xx_HAL_Driver/Src/stm32f4xx_hal_dma_ex.c ****   {
 234              		.loc 1 195 33 is_stmt 0 discriminator 2 view .LVU68
 235 001e 90F83540 		ldrb	r4, [r0, #53]	@ zero_extendqisi2
 193:Drivers/STM32F4xx_HAL_Driver/Src/stm32f4xx_hal_dma_ex.c ****   
 236              		.loc 1 193 3 discriminator 2 view .LVU69
 237 0022 0126     		movs	r6, #1
 195:Drivers/STM32F4xx_HAL_Driver/Src/stm32f4xx_hal_dma_ex.c ****   {
 238              		.loc 1 195 5 discriminator 2 view .LVU70
 239 0024 B442     		cmp	r4, r6
 193:Drivers/STM32F4xx_HAL_Driver/Src/stm32f4xx_hal_dma_ex.c ****   
 240              		.loc 1 193 3 discriminator 2 view .LVU71
 241 0026 80F83460 		strb	r6, [r0, #52]
 195:Drivers/STM32F4xx_HAL_Driver/Src/stm32f4xx_hal_dma_ex.c ****   {
 242              		.loc 1 195 3 is_stmt 1 discriminator 2 view .LVU72
 195:Drivers/STM32F4xx_HAL_Driver/Src/stm32f4xx_hal_dma_ex.c ****   {
 243              		.loc 1 195 5 is_stmt 0 discriminator 2 view .LVU73
 244 002a 10D0     		beq	.L99
 234:Drivers/STM32F4xx_HAL_Driver/Src/stm32f4xx_hal_dma_ex.c ****     
 245              		.loc 1 234 5 is_stmt 1 view .LVU74
 234:Drivers/STM32F4xx_HAL_Driver/Src/stm32f4xx_hal_dma_ex.c ****     
 246              		.loc 1 234 5 view .LVU75
 247 002c 0023     		movs	r3, #0
 248              	.LVL16:
 234:Drivers/STM32F4xx_HAL_Driver/Src/stm32f4xx_hal_dma_ex.c ****     
 249              		.loc 1 234 5 is_stmt 0 view .LVU76
 250 002e 80F83430 		strb	r3, [r0, #52]
 237:Drivers/STM32F4xx_HAL_Driver/Src/stm32f4xx_hal_dma_ex.c ****   }  
 251              		.loc 1 237 5 is_stmt 1 view .LVU77
 252              	.LVL17:
 240:Drivers/STM32F4xx_HAL_Driver/Src/stm32f4xx_hal_dma_ex.c **** 
 253              		.loc 1 240 1 is_stmt 0 view .LVU78
 254 0032 F0BC     		pop	{r4, r5, r6, r7}
 255              	.LCFI7:
 256              		.cfi_remember_state
 257              		.cfi_restore 7
 258              		.cfi_restore 6
 259              		.cfi_restore 5
 260              		.cfi_restore 4
 261              		.cfi_def_cfa_offset 0
 262              	.LVL18:
ARM GAS  /tmp/ccooWk4N.s 			page 12


 237:Drivers/STM32F4xx_HAL_Driver/Src/stm32f4xx_hal_dma_ex.c ****   }  
 263              		.loc 1 237 12 view .LVU79
 264 0034 0220     		movs	r0, #2
 265              	.LVL19:
 240:Drivers/STM32F4xx_HAL_Driver/Src/stm32f4xx_hal_dma_ex.c **** 
 266              		.loc 1 240 1 view .LVU80
 267 0036 7047     		bx	lr
 268              	.LVL20:
 269              	.L15:
 270              	.LCFI8:
 271              		.cfi_restore_state
 188:Drivers/STM32F4xx_HAL_Driver/Src/stm32f4xx_hal_dma_ex.c ****     return HAL_ERROR;
 272              		.loc 1 188 5 is_stmt 1 view .LVU81
 188:Drivers/STM32F4xx_HAL_Driver/Src/stm32f4xx_hal_dma_ex.c ****     return HAL_ERROR;
 273              		.loc 1 188 21 is_stmt 0 view .LVU82
 274 0038 4023     		movs	r3, #64
 275              	.LVL21:
 188:Drivers/STM32F4xx_HAL_Driver/Src/stm32f4xx_hal_dma_ex.c ****     return HAL_ERROR;
 276              		.loc 1 188 21 view .LVU83
 277 003a 4365     		str	r3, [r0, #84]
 278              	.LVL22:
 189:Drivers/STM32F4xx_HAL_Driver/Src/stm32f4xx_hal_dma_ex.c ****   }
 279              		.loc 1 189 5 is_stmt 1 view .LVU84
 189:Drivers/STM32F4xx_HAL_Driver/Src/stm32f4xx_hal_dma_ex.c ****   }
 280              		.loc 1 189 12 is_stmt 0 view .LVU85
 281 003c 0120     		movs	r0, #1
 282              	.LVL23:
 283              	.L92:
 240:Drivers/STM32F4xx_HAL_Driver/Src/stm32f4xx_hal_dma_ex.c **** 
 284              		.loc 1 240 1 view .LVU86
 285 003e F0BC     		pop	{r4, r5, r6, r7}
 286              	.LCFI9:
 287              		.cfi_remember_state
 288              		.cfi_restore 7
 289              		.cfi_restore 6
 290              		.cfi_restore 5
 291              		.cfi_restore 4
 292              		.cfi_def_cfa_offset 0
 293 0040 7047     		bx	lr
 294              	.LVL24:
 295              	.L98:
 296              	.LCFI10:
 297              		.cfi_restore_state
 181:Drivers/STM32F4xx_HAL_Driver/Src/stm32f4xx_hal_dma_ex.c ****     return HAL_ERROR;
 298              		.loc 1 181 5 is_stmt 1 view .LVU87
 181:Drivers/STM32F4xx_HAL_Driver/Src/stm32f4xx_hal_dma_ex.c ****     return HAL_ERROR;
 299              		.loc 1 181 21 is_stmt 0 view .LVU88
 300 0042 4FF48073 		mov	r3, #256
 301              	.LVL25:
 181:Drivers/STM32F4xx_HAL_Driver/Src/stm32f4xx_hal_dma_ex.c ****     return HAL_ERROR;
 302              		.loc 1 181 21 view .LVU89
 303 0046 4365     		str	r3, [r0, #84]
 304              	.LVL26:
 182:Drivers/STM32F4xx_HAL_Driver/Src/stm32f4xx_hal_dma_ex.c ****   }
 305              		.loc 1 182 5 is_stmt 1 view .LVU90
 240:Drivers/STM32F4xx_HAL_Driver/Src/stm32f4xx_hal_dma_ex.c **** 
 306              		.loc 1 240 1 is_stmt 0 view .LVU91
ARM GAS  /tmp/ccooWk4N.s 			page 13


 307 0048 F0BC     		pop	{r4, r5, r6, r7}
 308              	.LCFI11:
 309              		.cfi_remember_state
 310              		.cfi_restore 7
 311              		.cfi_restore 6
 312              		.cfi_restore 5
 313              		.cfi_restore 4
 314              		.cfi_def_cfa_offset 0
 182:Drivers/STM32F4xx_HAL_Driver/Src/stm32f4xx_hal_dma_ex.c ****   }
 315              		.loc 1 182 12 view .LVU92
 316 004a 0120     		movs	r0, #1
 317              	.LVL27:
 240:Drivers/STM32F4xx_HAL_Driver/Src/stm32f4xx_hal_dma_ex.c **** 
 318              		.loc 1 240 1 view .LVU93
 319 004c 7047     		bx	lr
 320              	.LVL28:
 321              	.L99:
 322              	.LCFI12:
 323              		.cfi_restore_state
 198:Drivers/STM32F4xx_HAL_Driver/Src/stm32f4xx_hal_dma_ex.c ****     
 324              		.loc 1 198 5 is_stmt 1 view .LVU94
 204:Drivers/STM32F4xx_HAL_Driver/Src/stm32f4xx_hal_dma_ex.c ****     
 325              		.loc 1 204 9 is_stmt 0 view .LVU95
 326 004e 0468     		ldr	r4, [r0]
 201:Drivers/STM32F4xx_HAL_Driver/Src/stm32f4xx_hal_dma_ex.c ****     
 327              		.loc 1 201 21 view .LVU96
 328 0050 0026     		movs	r6, #0
 198:Drivers/STM32F4xx_HAL_Driver/Src/stm32f4xx_hal_dma_ex.c ****     
 329              		.loc 1 198 17 view .LVU97
 330 0052 0227     		movs	r7, #2
 331 0054 80F83570 		strb	r7, [r0, #53]
 201:Drivers/STM32F4xx_HAL_Driver/Src/stm32f4xx_hal_dma_ex.c ****     
 332              		.loc 1 201 5 is_stmt 1 view .LVU98
 201:Drivers/STM32F4xx_HAL_Driver/Src/stm32f4xx_hal_dma_ex.c ****     
 333              		.loc 1 201 21 is_stmt 0 view .LVU99
 334 0058 4665     		str	r6, [r0, #84]
 204:Drivers/STM32F4xx_HAL_Driver/Src/stm32f4xx_hal_dma_ex.c ****     
 335              		.loc 1 204 5 is_stmt 1 view .LVU100
 204:Drivers/STM32F4xx_HAL_Driver/Src/stm32f4xx_hal_dma_ex.c ****     
 336              		.loc 1 204 24 is_stmt 0 view .LVU101
 337 005a 2668     		ldr	r6, [r4]
 338 005c 46F48026 		orr	r6, r6, #262144
 339 0060 2660     		str	r6, [r4]
 207:Drivers/STM32F4xx_HAL_Driver/Src/stm32f4xx_hal_dma_ex.c ****     
 340              		.loc 1 207 5 is_stmt 1 view .LVU102
 207:Drivers/STM32F4xx_HAL_Driver/Src/stm32f4xx_hal_dma_ex.c ****     
 341              		.loc 1 207 26 is_stmt 0 view .LVU103
 342 0062 2361     		str	r3, [r4, #16]
 210:Drivers/STM32F4xx_HAL_Driver/Src/stm32f4xx_hal_dma_ex.c ****     
 343              		.loc 1 210 5 is_stmt 1 view .LVU104
 344              	.LVL29:
 345              	.LBB10:
 346              	.LBI10:
 293:Drivers/STM32F4xx_HAL_Driver/Src/stm32f4xx_hal_dma_ex.c **** {  
 347              		.loc 1 293 13 view .LVU105
 348              	.LBB11:
 296:Drivers/STM32F4xx_HAL_Driver/Src/stm32f4xx_hal_dma_ex.c ****   
ARM GAS  /tmp/ccooWk4N.s 			page 14


 349              		.loc 1 296 3 view .LVU106
 296:Drivers/STM32F4xx_HAL_Driver/Src/stm32f4xx_hal_dma_ex.c ****   
 350              		.loc 1 296 24 is_stmt 0 view .LVU107
 351 0064 049B     		ldr	r3, [sp, #16]
 352              	.LVL30:
 296:Drivers/STM32F4xx_HAL_Driver/Src/stm32f4xx_hal_dma_ex.c ****   
 353              		.loc 1 296 24 view .LVU108
 354 0066 6360     		str	r3, [r4, #4]
 355              	.LVL31:
 299:Drivers/STM32F4xx_HAL_Driver/Src/stm32f4xx_hal_dma_ex.c ****   {   
 356              		.loc 1 299 3 is_stmt 1 view .LVU109
 357              	.LBE11:
 358              	.LBE10:
 213:Drivers/STM32F4xx_HAL_Driver/Src/stm32f4xx_hal_dma_ex.c ****     __HAL_DMA_CLEAR_FLAG (hdma, __HAL_DMA_GET_HT_FLAG_INDEX(hdma));
 359              		.loc 1 213 5 is_stmt 0 view .LVU110
 360 0068 C54B     		ldr	r3, .L102
 361              	.LBB13:
 362              	.LBB12:
 299:Drivers/STM32F4xx_HAL_Driver/Src/stm32f4xx_hal_dma_ex.c ****   {   
 363              		.loc 1 299 5 view .LVU111
 364 006a 402D     		cmp	r5, #64
 302:Drivers/STM32F4xx_HAL_Driver/Src/stm32f4xx_hal_dma_ex.c ****     
 365              		.loc 1 302 5 is_stmt 1 view .LVU112
 302:Drivers/STM32F4xx_HAL_Driver/Src/stm32f4xx_hal_dma_ex.c ****     
 366              		.loc 1 302 25 is_stmt 0 view .LVU113
 367 006c 0BBF     		itete	eq
 368 006e A260     		streq	r2, [r4, #8]
 305:Drivers/STM32F4xx_HAL_Driver/Src/stm32f4xx_hal_dma_ex.c ****   }
 369              		.loc 1 305 5 is_stmt 1 view .LVU114
 311:Drivers/STM32F4xx_HAL_Driver/Src/stm32f4xx_hal_dma_ex.c ****     
 370              		.loc 1 311 25 is_stmt 0 view .LVU115
 371 0070 A160     		strne	r1, [r4, #8]
 305:Drivers/STM32F4xx_HAL_Driver/Src/stm32f4xx_hal_dma_ex.c ****   }
 372              		.loc 1 305 26 view .LVU116
 373 0072 E160     		streq	r1, [r4, #12]
 311:Drivers/STM32F4xx_HAL_Driver/Src/stm32f4xx_hal_dma_ex.c ****     
 374              		.loc 1 311 5 is_stmt 1 view .LVU117
 375              		.loc 1 314 5 view .LVU118
 376              		.loc 1 314 26 is_stmt 0 view .LVU119
 377 0074 E260     		strne	r2, [r4, #12]
 378              	.LVL32:
 379              		.loc 1 314 26 view .LVU120
 380              	.LBE12:
 381              	.LBE13:
 213:Drivers/STM32F4xx_HAL_Driver/Src/stm32f4xx_hal_dma_ex.c ****     __HAL_DMA_CLEAR_FLAG (hdma, __HAL_DMA_GET_HT_FLAG_INDEX(hdma));
 382              		.loc 1 213 5 is_stmt 1 view .LVU121
 383 0076 9C42     		cmp	r4, r3
 384 0078 69D9     		bls	.L20
 213:Drivers/STM32F4xx_HAL_Driver/Src/stm32f4xx_hal_dma_ex.c ****     __HAL_DMA_CLEAR_FLAG (hdma, __HAL_DMA_GET_HT_FLAG_INDEX(hdma));
 385              		.loc 1 213 5 is_stmt 0 discriminator 1 view .LVU122
 386 007a A3F58963 		sub	r3, r3, #1096
 387 007e 9C42     		cmp	r4, r3
 388 0080 43D0     		beq	.L23
 213:Drivers/STM32F4xx_HAL_Driver/Src/stm32f4xx_hal_dma_ex.c ****     __HAL_DMA_CLEAR_FLAG (hdma, __HAL_DMA_GET_HT_FLAG_INDEX(hdma));
 389              		.loc 1 213 5 discriminator 3 view .LVU123
 390 0082 03F58063 		add	r3, r3, #1024
 391 0086 9C42     		cmp	r4, r3
ARM GAS  /tmp/ccooWk4N.s 			page 15


 392 0088 3FD0     		beq	.L23
 213:Drivers/STM32F4xx_HAL_Driver/Src/stm32f4xx_hal_dma_ex.c ****     __HAL_DMA_CLEAR_FLAG (hdma, __HAL_DMA_GET_HT_FLAG_INDEX(hdma));
 393              		.loc 1 213 5 discriminator 5 view .LVU124
 394 008a A3F56873 		sub	r3, r3, #928
 395 008e 9C42     		cmp	r4, r3
 396 0090 3BD0     		beq	.L23
 213:Drivers/STM32F4xx_HAL_Driver/Src/stm32f4xx_hal_dma_ex.c ****     __HAL_DMA_CLEAR_FLAG (hdma, __HAL_DMA_GET_HT_FLAG_INDEX(hdma));
 397              		.loc 1 213 5 discriminator 7 view .LVU125
 398 0092 03F58063 		add	r3, r3, #1024
 399 0096 9C42     		cmp	r4, r3
 400 0098 37D0     		beq	.L23
 213:Drivers/STM32F4xx_HAL_Driver/Src/stm32f4xx_hal_dma_ex.c ****     __HAL_DMA_CLEAR_FLAG (hdma, __HAL_DMA_GET_HT_FLAG_INDEX(hdma));
 401              		.loc 1 213 5 discriminator 9 view .LVU126
 402 009a A3F58963 		sub	r3, r3, #1096
 403 009e 9C42     		cmp	r4, r3
 404 00a0 00F05E81 		beq	.L25
 213:Drivers/STM32F4xx_HAL_Driver/Src/stm32f4xx_hal_dma_ex.c ****     __HAL_DMA_CLEAR_FLAG (hdma, __HAL_DMA_GET_HT_FLAG_INDEX(hdma));
 405              		.loc 1 213 5 discriminator 11 view .LVU127
 406 00a4 03F58063 		add	r3, r3, #1024
 407 00a8 9C42     		cmp	r4, r3
 408 00aa 00F05981 		beq	.L25
 213:Drivers/STM32F4xx_HAL_Driver/Src/stm32f4xx_hal_dma_ex.c ****     __HAL_DMA_CLEAR_FLAG (hdma, __HAL_DMA_GET_HT_FLAG_INDEX(hdma));
 409              		.loc 1 213 5 discriminator 13 view .LVU128
 410 00ae A3F56873 		sub	r3, r3, #928
 411 00b2 9C42     		cmp	r4, r3
 412 00b4 00F05481 		beq	.L25
 213:Drivers/STM32F4xx_HAL_Driver/Src/stm32f4xx_hal_dma_ex.c ****     __HAL_DMA_CLEAR_FLAG (hdma, __HAL_DMA_GET_HT_FLAG_INDEX(hdma));
 413              		.loc 1 213 5 discriminator 15 view .LVU129
 414 00b8 03F58063 		add	r3, r3, #1024
 415 00bc 9C42     		cmp	r4, r3
 416 00be 00F04F81 		beq	.L25
 213:Drivers/STM32F4xx_HAL_Driver/Src/stm32f4xx_hal_dma_ex.c ****     __HAL_DMA_CLEAR_FLAG (hdma, __HAL_DMA_GET_HT_FLAG_INDEX(hdma));
 417              		.loc 1 213 5 discriminator 17 view .LVU130
 418 00c2 A3F58963 		sub	r3, r3, #1096
 419 00c6 9C42     		cmp	r4, r3
 420 00c8 00F09381 		beq	.L31
 213:Drivers/STM32F4xx_HAL_Driver/Src/stm32f4xx_hal_dma_ex.c ****     __HAL_DMA_CLEAR_FLAG (hdma, __HAL_DMA_GET_HT_FLAG_INDEX(hdma));
 421              		.loc 1 213 5 discriminator 19 view .LVU131
 422 00cc 03F58063 		add	r3, r3, #1024
 423 00d0 9C42     		cmp	r4, r3
 424 00d2 00F08E81 		beq	.L31
 213:Drivers/STM32F4xx_HAL_Driver/Src/stm32f4xx_hal_dma_ex.c ****     __HAL_DMA_CLEAR_FLAG (hdma, __HAL_DMA_GET_HT_FLAG_INDEX(hdma));
 425              		.loc 1 213 5 discriminator 21 view .LVU132
 426 00d6 A3F56873 		sub	r3, r3, #928
 427 00da 9C42     		cmp	r4, r3
 428 00dc 00F08981 		beq	.L31
 213:Drivers/STM32F4xx_HAL_Driver/Src/stm32f4xx_hal_dma_ex.c ****     __HAL_DMA_CLEAR_FLAG (hdma, __HAL_DMA_GET_HT_FLAG_INDEX(hdma));
 429              		.loc 1 213 5 discriminator 23 view .LVU133
 430 00e0 03F58063 		add	r3, r3, #1024
 431 00e4 9C42     		cmp	r4, r3
 432 00e6 00F08481 		beq	.L31
 213:Drivers/STM32F4xx_HAL_Driver/Src/stm32f4xx_hal_dma_ex.c ****     __HAL_DMA_CLEAR_FLAG (hdma, __HAL_DMA_GET_HT_FLAG_INDEX(hdma));
 433              		.loc 1 213 5 view .LVU134
 434 00ea A64B     		ldr	r3, .L102+4
 435 00ec 4FF00061 		mov	r1, #134217728
 436              	.LVL33:
 213:Drivers/STM32F4xx_HAL_Driver/Src/stm32f4xx_hal_dma_ex.c ****     __HAL_DMA_CLEAR_FLAG (hdma, __HAL_DMA_GET_HT_FLAG_INDEX(hdma));
ARM GAS  /tmp/ccooWk4N.s 			page 16


 437              		.loc 1 213 5 view .LVU135
 438 00f0 D960     		str	r1, [r3, #12]
 439              	.LVL34:
 214:Drivers/STM32F4xx_HAL_Driver/Src/stm32f4xx_hal_dma_ex.c ****     __HAL_DMA_CLEAR_FLAG (hdma, __HAL_DMA_GET_TE_FLAG_INDEX(hdma));
 440              		.loc 1 214 5 is_stmt 1 view .LVU136
 215:Drivers/STM32F4xx_HAL_Driver/Src/stm32f4xx_hal_dma_ex.c ****     __HAL_DMA_CLEAR_FLAG (hdma, __HAL_DMA_GET_DME_FLAG_INDEX(hdma));
 441              		.loc 1 215 5 is_stmt 0 view .LVU137
 442 00f2 4FF00072 		mov	r2, #33554432
 443              	.LVL35:
 214:Drivers/STM32F4xx_HAL_Driver/Src/stm32f4xx_hal_dma_ex.c ****     __HAL_DMA_CLEAR_FLAG (hdma, __HAL_DMA_GET_TE_FLAG_INDEX(hdma));
 444              		.loc 1 214 5 view .LVU138
 445 00f6 4FF08065 		mov	r5, #67108864
 216:Drivers/STM32F4xx_HAL_Driver/Src/stm32f4xx_hal_dma_ex.c ****     __HAL_DMA_CLEAR_FLAG (hdma, __HAL_DMA_GET_FE_FLAG_INDEX(hdma));
 446              		.loc 1 216 5 view .LVU139
 447 00fa 4FF08071 		mov	r1, #16777216
 214:Drivers/STM32F4xx_HAL_Driver/Src/stm32f4xx_hal_dma_ex.c ****     __HAL_DMA_CLEAR_FLAG (hdma, __HAL_DMA_GET_TE_FLAG_INDEX(hdma));
 448              		.loc 1 214 5 view .LVU140
 449 00fe DD60     		str	r5, [r3, #12]
 215:Drivers/STM32F4xx_HAL_Driver/Src/stm32f4xx_hal_dma_ex.c ****     __HAL_DMA_CLEAR_FLAG (hdma, __HAL_DMA_GET_DME_FLAG_INDEX(hdma));
 450              		.loc 1 215 5 is_stmt 1 view .LVU141
 451 0100 DA60     		str	r2, [r3, #12]
 216:Drivers/STM32F4xx_HAL_Driver/Src/stm32f4xx_hal_dma_ex.c ****     __HAL_DMA_CLEAR_FLAG (hdma, __HAL_DMA_GET_FE_FLAG_INDEX(hdma));
 452              		.loc 1 216 5 view .LVU142
 217:Drivers/STM32F4xx_HAL_Driver/Src/stm32f4xx_hal_dma_ex.c **** 
 453              		.loc 1 217 5 is_stmt 0 view .LVU143
 454 0102 4FF48002 		mov	r2, #4194304
 216:Drivers/STM32F4xx_HAL_Driver/Src/stm32f4xx_hal_dma_ex.c ****     __HAL_DMA_CLEAR_FLAG (hdma, __HAL_DMA_GET_FE_FLAG_INDEX(hdma));
 455              		.loc 1 216 5 view .LVU144
 456 0106 D960     		str	r1, [r3, #12]
 217:Drivers/STM32F4xx_HAL_Driver/Src/stm32f4xx_hal_dma_ex.c **** 
 457              		.loc 1 217 5 is_stmt 1 view .LVU145
 458 0108 09E0     		b	.L78
 459              	.LVL36:
 460              	.L23:
 213:Drivers/STM32F4xx_HAL_Driver/Src/stm32f4xx_hal_dma_ex.c ****     __HAL_DMA_CLEAR_FLAG (hdma, __HAL_DMA_GET_HT_FLAG_INDEX(hdma));
 461              		.loc 1 213 5 is_stmt 0 view .LVU146
 462 010a 9E4B     		ldr	r3, .L102+4
 463 010c 2021     		movs	r1, #32
 464              	.LVL37:
 213:Drivers/STM32F4xx_HAL_Driver/Src/stm32f4xx_hal_dma_ex.c ****     __HAL_DMA_CLEAR_FLAG (hdma, __HAL_DMA_GET_HT_FLAG_INDEX(hdma));
 465              		.loc 1 213 5 view .LVU147
 466 010e D960     		str	r1, [r3, #12]
 467              	.LVL38:
 214:Drivers/STM32F4xx_HAL_Driver/Src/stm32f4xx_hal_dma_ex.c ****     __HAL_DMA_CLEAR_FLAG (hdma, __HAL_DMA_GET_TE_FLAG_INDEX(hdma));
 468              		.loc 1 214 5 is_stmt 1 view .LVU148
 215:Drivers/STM32F4xx_HAL_Driver/Src/stm32f4xx_hal_dma_ex.c ****     __HAL_DMA_CLEAR_FLAG (hdma, __HAL_DMA_GET_DME_FLAG_INDEX(hdma));
 469              		.loc 1 215 5 is_stmt 0 view .LVU149
 470 0110 0822     		movs	r2, #8
 471              	.LVL39:
 214:Drivers/STM32F4xx_HAL_Driver/Src/stm32f4xx_hal_dma_ex.c ****     __HAL_DMA_CLEAR_FLAG (hdma, __HAL_DMA_GET_TE_FLAG_INDEX(hdma));
 472              		.loc 1 214 5 view .LVU150
 473 0112 1025     		movs	r5, #16
 216:Drivers/STM32F4xx_HAL_Driver/Src/stm32f4xx_hal_dma_ex.c ****     __HAL_DMA_CLEAR_FLAG (hdma, __HAL_DMA_GET_FE_FLAG_INDEX(hdma));
 474              		.loc 1 216 5 view .LVU151
 475 0114 0421     		movs	r1, #4
 214:Drivers/STM32F4xx_HAL_Driver/Src/stm32f4xx_hal_dma_ex.c ****     __HAL_DMA_CLEAR_FLAG (hdma, __HAL_DMA_GET_TE_FLAG_INDEX(hdma));
 476              		.loc 1 214 5 view .LVU152
ARM GAS  /tmp/ccooWk4N.s 			page 17


 477 0116 DD60     		str	r5, [r3, #12]
 215:Drivers/STM32F4xx_HAL_Driver/Src/stm32f4xx_hal_dma_ex.c ****     __HAL_DMA_CLEAR_FLAG (hdma, __HAL_DMA_GET_DME_FLAG_INDEX(hdma));
 478              		.loc 1 215 5 is_stmt 1 view .LVU153
 479 0118 DA60     		str	r2, [r3, #12]
 216:Drivers/STM32F4xx_HAL_Driver/Src/stm32f4xx_hal_dma_ex.c ****     __HAL_DMA_CLEAR_FLAG (hdma, __HAL_DMA_GET_FE_FLAG_INDEX(hdma));
 480              		.loc 1 216 5 view .LVU154
 217:Drivers/STM32F4xx_HAL_Driver/Src/stm32f4xx_hal_dma_ex.c **** 
 481              		.loc 1 217 5 is_stmt 0 view .LVU155
 482 011a 0122     		movs	r2, #1
 216:Drivers/STM32F4xx_HAL_Driver/Src/stm32f4xx_hal_dma_ex.c ****     __HAL_DMA_CLEAR_FLAG (hdma, __HAL_DMA_GET_FE_FLAG_INDEX(hdma));
 483              		.loc 1 216 5 view .LVU156
 484 011c D960     		str	r1, [r3, #12]
 217:Drivers/STM32F4xx_HAL_Driver/Src/stm32f4xx_hal_dma_ex.c **** 
 485              		.loc 1 217 5 is_stmt 1 view .LVU157
 486              	.L78:
 217:Drivers/STM32F4xx_HAL_Driver/Src/stm32f4xx_hal_dma_ex.c **** 
 487              		.loc 1 217 5 is_stmt 0 discriminator 50 view .LVU158
 488 011e 994B     		ldr	r3, .L102+4
 489 0120 DA60     		str	r2, [r3, #12]
 490              	.L75:
 220:Drivers/STM32F4xx_HAL_Driver/Src/stm32f4xx_hal_dma_ex.c ****     hdma->Instance->FCR |= DMA_IT_FE;
 491              		.loc 1 220 5 is_stmt 1 view .LVU159
 220:Drivers/STM32F4xx_HAL_Driver/Src/stm32f4xx_hal_dma_ex.c ****     hdma->Instance->FCR |= DMA_IT_FE;
 492              		.loc 1 220 25 is_stmt 0 view .LVU160
 493 0122 2368     		ldr	r3, [r4]
 223:Drivers/STM32F4xx_HAL_Driver/Src/stm32f4xx_hal_dma_ex.c ****     {
 494              		.loc 1 223 7 view .LVU161
 495 0124 026C     		ldr	r2, [r0, #64]
 220:Drivers/STM32F4xx_HAL_Driver/Src/stm32f4xx_hal_dma_ex.c ****     hdma->Instance->FCR |= DMA_IT_FE;
 496              		.loc 1 220 25 view .LVU162
 497 0126 43F01603 		orr	r3, r3, #22
 498 012a 2360     		str	r3, [r4]
 221:Drivers/STM32F4xx_HAL_Driver/Src/stm32f4xx_hal_dma_ex.c ****     
 499              		.loc 1 221 5 is_stmt 1 view .LVU163
 221:Drivers/STM32F4xx_HAL_Driver/Src/stm32f4xx_hal_dma_ex.c ****     
 500              		.loc 1 221 25 is_stmt 0 view .LVU164
 501 012c 6369     		ldr	r3, [r4, #20]
 502 012e 43F08003 		orr	r3, r3, #128
 503 0132 6361     		str	r3, [r4, #20]
 223:Drivers/STM32F4xx_HAL_Driver/Src/stm32f4xx_hal_dma_ex.c ****     {
 504              		.loc 1 223 5 is_stmt 1 view .LVU165
 223:Drivers/STM32F4xx_HAL_Driver/Src/stm32f4xx_hal_dma_ex.c ****     {
 505              		.loc 1 223 7 is_stmt 0 view .LVU166
 506 0134 002A     		cmp	r2, #0
 507 0136 5ED0     		beq	.L100
 508              	.L76:
 225:Drivers/STM32F4xx_HAL_Driver/Src/stm32f4xx_hal_dma_ex.c ****     }
 509              		.loc 1 225 7 is_stmt 1 view .LVU167
 225:Drivers/STM32F4xx_HAL_Driver/Src/stm32f4xx_hal_dma_ex.c ****     }
 510              		.loc 1 225 27 is_stmt 0 view .LVU168
 511 0138 2368     		ldr	r3, [r4]
 512 013a 43F00803 		orr	r3, r3, #8
 513 013e 2360     		str	r3, [r4]
 514              	.L77:
 229:Drivers/STM32F4xx_HAL_Driver/Src/stm32f4xx_hal_dma_ex.c ****   }
 515              		.loc 1 229 5 is_stmt 1 view .LVU169
 516 0140 2368     		ldr	r3, [r4]
ARM GAS  /tmp/ccooWk4N.s 			page 18


 517 0142 43F00103 		orr	r3, r3, #1
 518 0146 2360     		str	r3, [r4]
 173:Drivers/STM32F4xx_HAL_Driver/Src/stm32f4xx_hal_dma_ex.c ****   
 519              		.loc 1 173 21 is_stmt 0 view .LVU170
 520 0148 0020     		movs	r0, #0
 521              	.LVL40:
 240:Drivers/STM32F4xx_HAL_Driver/Src/stm32f4xx_hal_dma_ex.c **** 
 522              		.loc 1 240 1 view .LVU171
 523 014a F0BC     		pop	{r4, r5, r6, r7}
 524              	.LCFI13:
 525              		.cfi_remember_state
 526              		.cfi_restore 7
 527              		.cfi_restore 6
 528              		.cfi_restore 5
 529              		.cfi_restore 4
 530              		.cfi_def_cfa_offset 0
 531 014c 7047     		bx	lr
 532              	.LVL41:
 533              	.L20:
 534              	.LCFI14:
 535              		.cfi_restore_state
 213:Drivers/STM32F4xx_HAL_Driver/Src/stm32f4xx_hal_dma_ex.c ****     __HAL_DMA_CLEAR_FLAG (hdma, __HAL_DMA_GET_HT_FLAG_INDEX(hdma));
 536              		.loc 1 213 5 discriminator 2 view .LVU172
 537 014e 8E4B     		ldr	r3, .L102+8
 538 0150 9C42     		cmp	r4, r3
 539 0152 56D8     		bhi	.L101
 213:Drivers/STM32F4xx_HAL_Driver/Src/stm32f4xx_hal_dma_ex.c ****     __HAL_DMA_CLEAR_FLAG (hdma, __HAL_DMA_GET_HT_FLAG_INDEX(hdma));
 540              		.loc 1 213 5 discriminator 52 view .LVU173
 541 0154 8D4B     		ldr	r3, .L102+12
 542 0156 9C42     		cmp	r4, r3
 543 0158 40F2A780 		bls	.L48
 213:Drivers/STM32F4xx_HAL_Driver/Src/stm32f4xx_hal_dma_ex.c ****     __HAL_DMA_CLEAR_FLAG (hdma, __HAL_DMA_GET_HT_FLAG_INDEX(hdma));
 544              		.loc 1 213 5 discriminator 102 view .LVU174
 545 015c 483B     		subs	r3, r3, #72
 546 015e 9C42     		cmp	r4, r3
 547 0160 00F0E880 		beq	.L51
 213:Drivers/STM32F4xx_HAL_Driver/Src/stm32f4xx_hal_dma_ex.c ****     __HAL_DMA_CLEAR_FLAG (hdma, __HAL_DMA_GET_HT_FLAG_INDEX(hdma));
 548              		.loc 1 213 5 discriminator 104 view .LVU175
 549 0164 03F58063 		add	r3, r3, #1024
 550 0168 9C42     		cmp	r4, r3
 551 016a 00F0E380 		beq	.L51
 213:Drivers/STM32F4xx_HAL_Driver/Src/stm32f4xx_hal_dma_ex.c ****     __HAL_DMA_CLEAR_FLAG (hdma, __HAL_DMA_GET_HT_FLAG_INDEX(hdma));
 552              		.loc 1 213 5 discriminator 106 view .LVU176
 553 016e A3F56873 		sub	r3, r3, #928
 554 0172 9C42     		cmp	r4, r3
 555 0174 00F0DE80 		beq	.L51
 213:Drivers/STM32F4xx_HAL_Driver/Src/stm32f4xx_hal_dma_ex.c ****     __HAL_DMA_CLEAR_FLAG (hdma, __HAL_DMA_GET_HT_FLAG_INDEX(hdma));
 556              		.loc 1 213 5 discriminator 108 view .LVU177
 557 0178 03F58063 		add	r3, r3, #1024
 558 017c 9C42     		cmp	r4, r3
 559 017e 00F0D980 		beq	.L51
 213:Drivers/STM32F4xx_HAL_Driver/Src/stm32f4xx_hal_dma_ex.c ****     __HAL_DMA_CLEAR_FLAG (hdma, __HAL_DMA_GET_HT_FLAG_INDEX(hdma));
 560              		.loc 1 213 5 discriminator 110 view .LVU178
 561 0182 A3F58963 		sub	r3, r3, #1096
 562 0186 9C42     		cmp	r4, r3
 563 0188 00F02481 		beq	.L53
 213:Drivers/STM32F4xx_HAL_Driver/Src/stm32f4xx_hal_dma_ex.c ****     __HAL_DMA_CLEAR_FLAG (hdma, __HAL_DMA_GET_HT_FLAG_INDEX(hdma));
ARM GAS  /tmp/ccooWk4N.s 			page 19


 564              		.loc 1 213 5 discriminator 112 view .LVU179
 565 018c 03F58063 		add	r3, r3, #1024
 566 0190 9C42     		cmp	r4, r3
 567 0192 00F01F81 		beq	.L53
 213:Drivers/STM32F4xx_HAL_Driver/Src/stm32f4xx_hal_dma_ex.c ****     __HAL_DMA_CLEAR_FLAG (hdma, __HAL_DMA_GET_HT_FLAG_INDEX(hdma));
 568              		.loc 1 213 5 discriminator 114 view .LVU180
 569 0196 A3F56873 		sub	r3, r3, #928
 570 019a 9C42     		cmp	r4, r3
 571 019c 00F01A81 		beq	.L53
 213:Drivers/STM32F4xx_HAL_Driver/Src/stm32f4xx_hal_dma_ex.c ****     __HAL_DMA_CLEAR_FLAG (hdma, __HAL_DMA_GET_HT_FLAG_INDEX(hdma));
 572              		.loc 1 213 5 discriminator 116 view .LVU181
 573 01a0 03F58063 		add	r3, r3, #1024
 574 01a4 9C42     		cmp	r4, r3
 575 01a6 00F01581 		beq	.L53
 213:Drivers/STM32F4xx_HAL_Driver/Src/stm32f4xx_hal_dma_ex.c ****     __HAL_DMA_CLEAR_FLAG (hdma, __HAL_DMA_GET_HT_FLAG_INDEX(hdma));
 576              		.loc 1 213 5 discriminator 118 view .LVU182
 577 01aa A3F58963 		sub	r3, r3, #1096
 578 01ae 9C42     		cmp	r4, r3
 579 01b0 00F04F81 		beq	.L59
 213:Drivers/STM32F4xx_HAL_Driver/Src/stm32f4xx_hal_dma_ex.c ****     __HAL_DMA_CLEAR_FLAG (hdma, __HAL_DMA_GET_HT_FLAG_INDEX(hdma));
 580              		.loc 1 213 5 discriminator 120 view .LVU183
 581 01b4 03F58063 		add	r3, r3, #1024
 582 01b8 9C42     		cmp	r4, r3
 583 01ba 00F04A81 		beq	.L59
 213:Drivers/STM32F4xx_HAL_Driver/Src/stm32f4xx_hal_dma_ex.c ****     __HAL_DMA_CLEAR_FLAG (hdma, __HAL_DMA_GET_HT_FLAG_INDEX(hdma));
 584              		.loc 1 213 5 discriminator 122 view .LVU184
 585 01be A3F56873 		sub	r3, r3, #928
 586 01c2 9C42     		cmp	r4, r3
 587 01c4 00F04581 		beq	.L59
 213:Drivers/STM32F4xx_HAL_Driver/Src/stm32f4xx_hal_dma_ex.c ****     __HAL_DMA_CLEAR_FLAG (hdma, __HAL_DMA_GET_HT_FLAG_INDEX(hdma));
 588              		.loc 1 213 5 discriminator 124 view .LVU185
 589 01c8 03F58063 		add	r3, r3, #1024
 590 01cc 9C42     		cmp	r4, r3
 591 01ce 00F04081 		beq	.L59
 213:Drivers/STM32F4xx_HAL_Driver/Src/stm32f4xx_hal_dma_ex.c ****     __HAL_DMA_CLEAR_FLAG (hdma, __HAL_DMA_GET_HT_FLAG_INDEX(hdma));
 592              		.loc 1 213 5 view .LVU186
 593 01d2 6F4A     		ldr	r2, .L102+16
 594              	.LVL42:
 213:Drivers/STM32F4xx_HAL_Driver/Src/stm32f4xx_hal_dma_ex.c ****     __HAL_DMA_CLEAR_FLAG (hdma, __HAL_DMA_GET_HT_FLAG_INDEX(hdma));
 595              		.loc 1 213 5 view .LVU187
 596 01d4 4FF00061 		mov	r1, #134217728
 597              	.LVL43:
 213:Drivers/STM32F4xx_HAL_Driver/Src/stm32f4xx_hal_dma_ex.c ****     __HAL_DMA_CLEAR_FLAG (hdma, __HAL_DMA_GET_HT_FLAG_INDEX(hdma));
 598              		.loc 1 213 5 view .LVU188
 599 01d8 D160     		str	r1, [r2, #12]
 600              	.LVL44:
 214:Drivers/STM32F4xx_HAL_Driver/Src/stm32f4xx_hal_dma_ex.c ****     __HAL_DMA_CLEAR_FLAG (hdma, __HAL_DMA_GET_TE_FLAG_INDEX(hdma));
 601              		.loc 1 214 5 is_stmt 1 view .LVU189
 215:Drivers/STM32F4xx_HAL_Driver/Src/stm32f4xx_hal_dma_ex.c ****     __HAL_DMA_CLEAR_FLAG (hdma, __HAL_DMA_GET_DME_FLAG_INDEX(hdma));
 602              		.loc 1 215 5 is_stmt 0 view .LVU190
 603 01da 4FF00073 		mov	r3, #33554432
 214:Drivers/STM32F4xx_HAL_Driver/Src/stm32f4xx_hal_dma_ex.c ****     __HAL_DMA_CLEAR_FLAG (hdma, __HAL_DMA_GET_TE_FLAG_INDEX(hdma));
 604              		.loc 1 214 5 view .LVU191
 605 01de 4FF08065 		mov	r5, #67108864
 216:Drivers/STM32F4xx_HAL_Driver/Src/stm32f4xx_hal_dma_ex.c ****     __HAL_DMA_CLEAR_FLAG (hdma, __HAL_DMA_GET_FE_FLAG_INDEX(hdma));
 606              		.loc 1 216 5 view .LVU192
 607 01e2 4FF08071 		mov	r1, #16777216
ARM GAS  /tmp/ccooWk4N.s 			page 20


 214:Drivers/STM32F4xx_HAL_Driver/Src/stm32f4xx_hal_dma_ex.c ****     __HAL_DMA_CLEAR_FLAG (hdma, __HAL_DMA_GET_TE_FLAG_INDEX(hdma));
 608              		.loc 1 214 5 view .LVU193
 609 01e6 D560     		str	r5, [r2, #12]
 215:Drivers/STM32F4xx_HAL_Driver/Src/stm32f4xx_hal_dma_ex.c ****     __HAL_DMA_CLEAR_FLAG (hdma, __HAL_DMA_GET_DME_FLAG_INDEX(hdma));
 610              		.loc 1 215 5 is_stmt 1 view .LVU194
 611 01e8 D360     		str	r3, [r2, #12]
 216:Drivers/STM32F4xx_HAL_Driver/Src/stm32f4xx_hal_dma_ex.c ****     __HAL_DMA_CLEAR_FLAG (hdma, __HAL_DMA_GET_FE_FLAG_INDEX(hdma));
 612              		.loc 1 216 5 view .LVU195
 217:Drivers/STM32F4xx_HAL_Driver/Src/stm32f4xx_hal_dma_ex.c **** 
 613              		.loc 1 217 5 is_stmt 0 view .LVU196
 614 01ea 4FF48003 		mov	r3, #4194304
 216:Drivers/STM32F4xx_HAL_Driver/Src/stm32f4xx_hal_dma_ex.c ****     __HAL_DMA_CLEAR_FLAG (hdma, __HAL_DMA_GET_FE_FLAG_INDEX(hdma));
 615              		.loc 1 216 5 view .LVU197
 616 01ee D160     		str	r1, [r2, #12]
 217:Drivers/STM32F4xx_HAL_Driver/Src/stm32f4xx_hal_dma_ex.c **** 
 617              		.loc 1 217 5 is_stmt 1 view .LVU198
 618              	.L80:
 217:Drivers/STM32F4xx_HAL_Driver/Src/stm32f4xx_hal_dma_ex.c **** 
 619              		.loc 1 217 5 is_stmt 0 discriminator 151 view .LVU199
 620 01f0 674A     		ldr	r2, .L102+16
 621 01f2 D360     		str	r3, [r2, #12]
 622 01f4 95E7     		b	.L75
 623              	.L100:
 223:Drivers/STM32F4xx_HAL_Driver/Src/stm32f4xx_hal_dma_ex.c ****     {
 624              		.loc 1 223 45 discriminator 1 view .LVU200
 625 01f6 836C     		ldr	r3, [r0, #72]
 626 01f8 002B     		cmp	r3, #0
 627 01fa 9DD1     		bne	.L76
 628 01fc A0E7     		b	.L77
 629              	.LVL45:
 630              	.L82:
 193:Drivers/STM32F4xx_HAL_Driver/Src/stm32f4xx_hal_dma_ex.c ****   
 631              		.loc 1 193 3 view .LVU201
 632 01fe 0220     		movs	r0, #2
 633              	.LVL46:
 193:Drivers/STM32F4xx_HAL_Driver/Src/stm32f4xx_hal_dma_ex.c ****   
 634              		.loc 1 193 3 view .LVU202
 635 0200 1DE7     		b	.L92
 636              	.LVL47:
 637              	.L101:
 213:Drivers/STM32F4xx_HAL_Driver/Src/stm32f4xx_hal_dma_ex.c ****     __HAL_DMA_CLEAR_FLAG (hdma, __HAL_DMA_GET_HT_FLAG_INDEX(hdma));
 638              		.loc 1 213 5 discriminator 51 view .LVU203
 639 0202 A83B     		subs	r3, r3, #168
 640 0204 9C42     		cmp	r4, r3
 641 0206 45D0     		beq	.L35
 213:Drivers/STM32F4xx_HAL_Driver/Src/stm32f4xx_hal_dma_ex.c ****     __HAL_DMA_CLEAR_FLAG (hdma, __HAL_DMA_GET_HT_FLAG_INDEX(hdma));
 642              		.loc 1 213 5 discriminator 53 view .LVU204
 643 0208 03F58063 		add	r3, r3, #1024
 644 020c 9C42     		cmp	r4, r3
 645 020e 41D0     		beq	.L35
 213:Drivers/STM32F4xx_HAL_Driver/Src/stm32f4xx_hal_dma_ex.c ****     __HAL_DMA_CLEAR_FLAG (hdma, __HAL_DMA_GET_HT_FLAG_INDEX(hdma));
 646              		.loc 1 213 5 discriminator 55 view .LVU205
 647 0210 A3F56873 		sub	r3, r3, #928
 648 0214 9C42     		cmp	r4, r3
 649 0216 3DD0     		beq	.L35
 213:Drivers/STM32F4xx_HAL_Driver/Src/stm32f4xx_hal_dma_ex.c ****     __HAL_DMA_CLEAR_FLAG (hdma, __HAL_DMA_GET_HT_FLAG_INDEX(hdma));
 650              		.loc 1 213 5 discriminator 57 view .LVU206
ARM GAS  /tmp/ccooWk4N.s 			page 21


 651 0218 03F58063 		add	r3, r3, #1024
 652 021c 9C42     		cmp	r4, r3
 653 021e 39D0     		beq	.L35
 213:Drivers/STM32F4xx_HAL_Driver/Src/stm32f4xx_hal_dma_ex.c ****     __HAL_DMA_CLEAR_FLAG (hdma, __HAL_DMA_GET_HT_FLAG_INDEX(hdma));
 654              		.loc 1 213 5 discriminator 59 view .LVU207
 655 0220 A3F58963 		sub	r3, r3, #1096
 656 0224 9C42     		cmp	r4, r3
 657 0226 00F0B780 		beq	.L39
 213:Drivers/STM32F4xx_HAL_Driver/Src/stm32f4xx_hal_dma_ex.c ****     __HAL_DMA_CLEAR_FLAG (hdma, __HAL_DMA_GET_HT_FLAG_INDEX(hdma));
 658              		.loc 1 213 5 discriminator 61 view .LVU208
 659 022a 03F58063 		add	r3, r3, #1024
 660 022e 9C42     		cmp	r4, r3
 661 0230 00F0B280 		beq	.L39
 213:Drivers/STM32F4xx_HAL_Driver/Src/stm32f4xx_hal_dma_ex.c ****     __HAL_DMA_CLEAR_FLAG (hdma, __HAL_DMA_GET_HT_FLAG_INDEX(hdma));
 662              		.loc 1 213 5 discriminator 63 view .LVU209
 663 0234 A3F56873 		sub	r3, r3, #928
 664 0238 9C42     		cmp	r4, r3
 665 023a 00F0AD80 		beq	.L39
 213:Drivers/STM32F4xx_HAL_Driver/Src/stm32f4xx_hal_dma_ex.c ****     __HAL_DMA_CLEAR_FLAG (hdma, __HAL_DMA_GET_HT_FLAG_INDEX(hdma));
 666              		.loc 1 213 5 discriminator 65 view .LVU210
 667 023e 03F58063 		add	r3, r3, #1024
 668 0242 9C42     		cmp	r4, r3
 669 0244 00F0A880 		beq	.L39
 213:Drivers/STM32F4xx_HAL_Driver/Src/stm32f4xx_hal_dma_ex.c ****     __HAL_DMA_CLEAR_FLAG (hdma, __HAL_DMA_GET_HT_FLAG_INDEX(hdma));
 670              		.loc 1 213 5 discriminator 67 view .LVU211
 671 0248 A3F58963 		sub	r3, r3, #1096
 672 024c 9C42     		cmp	r4, r3
 673 024e 00F0E080 		beq	.L46
 213:Drivers/STM32F4xx_HAL_Driver/Src/stm32f4xx_hal_dma_ex.c ****     __HAL_DMA_CLEAR_FLAG (hdma, __HAL_DMA_GET_HT_FLAG_INDEX(hdma));
 674              		.loc 1 213 5 discriminator 69 view .LVU212
 675 0252 03F58063 		add	r3, r3, #1024
 676 0256 9C42     		cmp	r4, r3
 677 0258 00F0DB80 		beq	.L46
 213:Drivers/STM32F4xx_HAL_Driver/Src/stm32f4xx_hal_dma_ex.c ****     __HAL_DMA_CLEAR_FLAG (hdma, __HAL_DMA_GET_HT_FLAG_INDEX(hdma));
 678              		.loc 1 213 5 discriminator 71 view .LVU213
 679 025c A3F56873 		sub	r3, r3, #928
 680 0260 9C42     		cmp	r4, r3
 681 0262 00F0D680 		beq	.L46
 213:Drivers/STM32F4xx_HAL_Driver/Src/stm32f4xx_hal_dma_ex.c ****     __HAL_DMA_CLEAR_FLAG (hdma, __HAL_DMA_GET_HT_FLAG_INDEX(hdma));
 682              		.loc 1 213 5 discriminator 73 view .LVU214
 683 0266 03F58063 		add	r3, r3, #1024
 684 026a 9C42     		cmp	r4, r3
 685 026c 00F0D180 		beq	.L46
 213:Drivers/STM32F4xx_HAL_Driver/Src/stm32f4xx_hal_dma_ex.c ****     __HAL_DMA_CLEAR_FLAG (hdma, __HAL_DMA_GET_HT_FLAG_INDEX(hdma));
 686              		.loc 1 213 5 view .LVU215
 687 0270 444B     		ldr	r3, .L102+4
 688 0272 4FF00061 		mov	r1, #134217728
 689              	.LVL48:
 213:Drivers/STM32F4xx_HAL_Driver/Src/stm32f4xx_hal_dma_ex.c ****     __HAL_DMA_CLEAR_FLAG (hdma, __HAL_DMA_GET_HT_FLAG_INDEX(hdma));
 690              		.loc 1 213 5 view .LVU216
 691 0276 9960     		str	r1, [r3, #8]
 692              	.LVL49:
 214:Drivers/STM32F4xx_HAL_Driver/Src/stm32f4xx_hal_dma_ex.c ****     __HAL_DMA_CLEAR_FLAG (hdma, __HAL_DMA_GET_TE_FLAG_INDEX(hdma));
 693              		.loc 1 214 5 is_stmt 1 view .LVU217
 215:Drivers/STM32F4xx_HAL_Driver/Src/stm32f4xx_hal_dma_ex.c ****     __HAL_DMA_CLEAR_FLAG (hdma, __HAL_DMA_GET_DME_FLAG_INDEX(hdma));
 694              		.loc 1 215 5 is_stmt 0 view .LVU218
 695 0278 4FF00072 		mov	r2, #33554432
ARM GAS  /tmp/ccooWk4N.s 			page 22


 696              	.LVL50:
 214:Drivers/STM32F4xx_HAL_Driver/Src/stm32f4xx_hal_dma_ex.c ****     __HAL_DMA_CLEAR_FLAG (hdma, __HAL_DMA_GET_TE_FLAG_INDEX(hdma));
 697              		.loc 1 214 5 view .LVU219
 698 027c 4FF08065 		mov	r5, #67108864
 216:Drivers/STM32F4xx_HAL_Driver/Src/stm32f4xx_hal_dma_ex.c ****     __HAL_DMA_CLEAR_FLAG (hdma, __HAL_DMA_GET_FE_FLAG_INDEX(hdma));
 699              		.loc 1 216 5 view .LVU220
 700 0280 4FF08071 		mov	r1, #16777216
 214:Drivers/STM32F4xx_HAL_Driver/Src/stm32f4xx_hal_dma_ex.c ****     __HAL_DMA_CLEAR_FLAG (hdma, __HAL_DMA_GET_TE_FLAG_INDEX(hdma));
 701              		.loc 1 214 5 view .LVU221
 702 0284 9D60     		str	r5, [r3, #8]
 215:Drivers/STM32F4xx_HAL_Driver/Src/stm32f4xx_hal_dma_ex.c ****     __HAL_DMA_CLEAR_FLAG (hdma, __HAL_DMA_GET_DME_FLAG_INDEX(hdma));
 703              		.loc 1 215 5 is_stmt 1 view .LVU222
 704 0286 9A60     		str	r2, [r3, #8]
 216:Drivers/STM32F4xx_HAL_Driver/Src/stm32f4xx_hal_dma_ex.c ****     __HAL_DMA_CLEAR_FLAG (hdma, __HAL_DMA_GET_FE_FLAG_INDEX(hdma));
 705              		.loc 1 216 5 view .LVU223
 217:Drivers/STM32F4xx_HAL_Driver/Src/stm32f4xx_hal_dma_ex.c **** 
 706              		.loc 1 217 5 is_stmt 0 view .LVU224
 707 0288 4FF48002 		mov	r2, #4194304
 216:Drivers/STM32F4xx_HAL_Driver/Src/stm32f4xx_hal_dma_ex.c ****     __HAL_DMA_CLEAR_FLAG (hdma, __HAL_DMA_GET_FE_FLAG_INDEX(hdma));
 708              		.loc 1 216 5 view .LVU225
 709 028c 9960     		str	r1, [r3, #8]
 217:Drivers/STM32F4xx_HAL_Driver/Src/stm32f4xx_hal_dma_ex.c **** 
 710              		.loc 1 217 5 is_stmt 1 view .LVU226
 711              	.L79:
 217:Drivers/STM32F4xx_HAL_Driver/Src/stm32f4xx_hal_dma_ex.c **** 
 712              		.loc 1 217 5 is_stmt 0 discriminator 100 view .LVU227
 713 028e 3D4B     		ldr	r3, .L102+4
 714 0290 9A60     		str	r2, [r3, #8]
 715 0292 46E7     		b	.L75
 716              	.LVL51:
 717              	.L35:
 213:Drivers/STM32F4xx_HAL_Driver/Src/stm32f4xx_hal_dma_ex.c ****     __HAL_DMA_CLEAR_FLAG (hdma, __HAL_DMA_GET_HT_FLAG_INDEX(hdma));
 718              		.loc 1 213 5 view .LVU228
 719 0294 3B4B     		ldr	r3, .L102+4
 720 0296 2021     		movs	r1, #32
 721              	.LVL52:
 213:Drivers/STM32F4xx_HAL_Driver/Src/stm32f4xx_hal_dma_ex.c ****     __HAL_DMA_CLEAR_FLAG (hdma, __HAL_DMA_GET_HT_FLAG_INDEX(hdma));
 722              		.loc 1 213 5 view .LVU229
 723 0298 9960     		str	r1, [r3, #8]
 724              	.LVL53:
 214:Drivers/STM32F4xx_HAL_Driver/Src/stm32f4xx_hal_dma_ex.c ****     __HAL_DMA_CLEAR_FLAG (hdma, __HAL_DMA_GET_TE_FLAG_INDEX(hdma));
 725              		.loc 1 214 5 is_stmt 1 view .LVU230
 215:Drivers/STM32F4xx_HAL_Driver/Src/stm32f4xx_hal_dma_ex.c ****     __HAL_DMA_CLEAR_FLAG (hdma, __HAL_DMA_GET_DME_FLAG_INDEX(hdma));
 726              		.loc 1 215 5 is_stmt 0 view .LVU231
 727 029a 0822     		movs	r2, #8
 728              	.LVL54:
 214:Drivers/STM32F4xx_HAL_Driver/Src/stm32f4xx_hal_dma_ex.c ****     __HAL_DMA_CLEAR_FLAG (hdma, __HAL_DMA_GET_TE_FLAG_INDEX(hdma));
 729              		.loc 1 214 5 view .LVU232
 730 029c 1025     		movs	r5, #16
 216:Drivers/STM32F4xx_HAL_Driver/Src/stm32f4xx_hal_dma_ex.c ****     __HAL_DMA_CLEAR_FLAG (hdma, __HAL_DMA_GET_FE_FLAG_INDEX(hdma));
 731              		.loc 1 216 5 view .LVU233
 732 029e 0421     		movs	r1, #4
 214:Drivers/STM32F4xx_HAL_Driver/Src/stm32f4xx_hal_dma_ex.c ****     __HAL_DMA_CLEAR_FLAG (hdma, __HAL_DMA_GET_TE_FLAG_INDEX(hdma));
 733              		.loc 1 214 5 view .LVU234
 734 02a0 9D60     		str	r5, [r3, #8]
 215:Drivers/STM32F4xx_HAL_Driver/Src/stm32f4xx_hal_dma_ex.c ****     __HAL_DMA_CLEAR_FLAG (hdma, __HAL_DMA_GET_DME_FLAG_INDEX(hdma));
 735              		.loc 1 215 5 is_stmt 1 view .LVU235
ARM GAS  /tmp/ccooWk4N.s 			page 23


 736 02a2 9A60     		str	r2, [r3, #8]
 216:Drivers/STM32F4xx_HAL_Driver/Src/stm32f4xx_hal_dma_ex.c ****     __HAL_DMA_CLEAR_FLAG (hdma, __HAL_DMA_GET_FE_FLAG_INDEX(hdma));
 737              		.loc 1 216 5 view .LVU236
 217:Drivers/STM32F4xx_HAL_Driver/Src/stm32f4xx_hal_dma_ex.c **** 
 738              		.loc 1 217 5 is_stmt 0 view .LVU237
 739 02a4 0122     		movs	r2, #1
 216:Drivers/STM32F4xx_HAL_Driver/Src/stm32f4xx_hal_dma_ex.c ****     __HAL_DMA_CLEAR_FLAG (hdma, __HAL_DMA_GET_FE_FLAG_INDEX(hdma));
 740              		.loc 1 216 5 view .LVU238
 741 02a6 9960     		str	r1, [r3, #8]
 217:Drivers/STM32F4xx_HAL_Driver/Src/stm32f4xx_hal_dma_ex.c **** 
 742              		.loc 1 217 5 is_stmt 1 view .LVU239
 743 02a8 F1E7     		b	.L79
 744              	.LVL55:
 745              	.L48:
 213:Drivers/STM32F4xx_HAL_Driver/Src/stm32f4xx_hal_dma_ex.c ****     __HAL_DMA_CLEAR_FLAG (hdma, __HAL_DMA_GET_HT_FLAG_INDEX(hdma));
 746              		.loc 1 213 5 is_stmt 0 discriminator 103 view .LVU240
 747 02aa 3A4B     		ldr	r3, .L102+20
 748 02ac 9C42     		cmp	r4, r3
 749 02ae 4CD0     		beq	.L63
 213:Drivers/STM32F4xx_HAL_Driver/Src/stm32f4xx_hal_dma_ex.c ****     __HAL_DMA_CLEAR_FLAG (hdma, __HAL_DMA_GET_HT_FLAG_INDEX(hdma));
 750              		.loc 1 213 5 discriminator 153 view .LVU241
 751 02b0 03F58063 		add	r3, r3, #1024
 752 02b4 9C42     		cmp	r4, r3
 753 02b6 48D0     		beq	.L63
 213:Drivers/STM32F4xx_HAL_Driver/Src/stm32f4xx_hal_dma_ex.c ****     __HAL_DMA_CLEAR_FLAG (hdma, __HAL_DMA_GET_HT_FLAG_INDEX(hdma));
 754              		.loc 1 213 5 discriminator 155 view .LVU242
 755 02b8 A3F56873 		sub	r3, r3, #928
 756 02bc 9C42     		cmp	r4, r3
 757 02be 44D0     		beq	.L63
 213:Drivers/STM32F4xx_HAL_Driver/Src/stm32f4xx_hal_dma_ex.c ****     __HAL_DMA_CLEAR_FLAG (hdma, __HAL_DMA_GET_HT_FLAG_INDEX(hdma));
 758              		.loc 1 213 5 discriminator 157 view .LVU243
 759 02c0 03F58063 		add	r3, r3, #1024
 760 02c4 9C42     		cmp	r4, r3
 761 02c6 40D0     		beq	.L63
 213:Drivers/STM32F4xx_HAL_Driver/Src/stm32f4xx_hal_dma_ex.c ****     __HAL_DMA_CLEAR_FLAG (hdma, __HAL_DMA_GET_HT_FLAG_INDEX(hdma));
 762              		.loc 1 213 5 discriminator 159 view .LVU244
 763 02c8 A3F58963 		sub	r3, r3, #1096
 764 02cc 9C42     		cmp	r4, r3
 765 02ce 72D0     		beq	.L67
 213:Drivers/STM32F4xx_HAL_Driver/Src/stm32f4xx_hal_dma_ex.c ****     __HAL_DMA_CLEAR_FLAG (hdma, __HAL_DMA_GET_HT_FLAG_INDEX(hdma));
 766              		.loc 1 213 5 discriminator 161 view .LVU245
 767 02d0 03F58063 		add	r3, r3, #1024
 768 02d4 9C42     		cmp	r4, r3
 769 02d6 6ED0     		beq	.L67
 213:Drivers/STM32F4xx_HAL_Driver/Src/stm32f4xx_hal_dma_ex.c ****     __HAL_DMA_CLEAR_FLAG (hdma, __HAL_DMA_GET_HT_FLAG_INDEX(hdma));
 770              		.loc 1 213 5 discriminator 163 view .LVU246
 771 02d8 A3F56873 		sub	r3, r3, #928
 772 02dc 9C42     		cmp	r4, r3
 773 02de 6AD0     		beq	.L67
 213:Drivers/STM32F4xx_HAL_Driver/Src/stm32f4xx_hal_dma_ex.c ****     __HAL_DMA_CLEAR_FLAG (hdma, __HAL_DMA_GET_HT_FLAG_INDEX(hdma));
 774              		.loc 1 213 5 discriminator 165 view .LVU247
 775 02e0 03F58063 		add	r3, r3, #1024
 776 02e4 9C42     		cmp	r4, r3
 777 02e6 66D0     		beq	.L67
 213:Drivers/STM32F4xx_HAL_Driver/Src/stm32f4xx_hal_dma_ex.c ****     __HAL_DMA_CLEAR_FLAG (hdma, __HAL_DMA_GET_HT_FLAG_INDEX(hdma));
 778              		.loc 1 213 5 discriminator 167 view .LVU248
 779 02e8 A3F58963 		sub	r3, r3, #1096
ARM GAS  /tmp/ccooWk4N.s 			page 24


 780 02ec 9C42     		cmp	r4, r3
 781 02ee 00F0A080 		beq	.L73
 213:Drivers/STM32F4xx_HAL_Driver/Src/stm32f4xx_hal_dma_ex.c ****     __HAL_DMA_CLEAR_FLAG (hdma, __HAL_DMA_GET_HT_FLAG_INDEX(hdma));
 782              		.loc 1 213 5 discriminator 169 view .LVU249
 783 02f2 03F58063 		add	r3, r3, #1024
 784 02f6 9C42     		cmp	r4, r3
 785 02f8 00F09B80 		beq	.L73
 213:Drivers/STM32F4xx_HAL_Driver/Src/stm32f4xx_hal_dma_ex.c ****     __HAL_DMA_CLEAR_FLAG (hdma, __HAL_DMA_GET_HT_FLAG_INDEX(hdma));
 786              		.loc 1 213 5 discriminator 171 view .LVU250
 787 02fc A3F56873 		sub	r3, r3, #928
 788 0300 9C42     		cmp	r4, r3
 789 0302 00F09680 		beq	.L73
 213:Drivers/STM32F4xx_HAL_Driver/Src/stm32f4xx_hal_dma_ex.c ****     __HAL_DMA_CLEAR_FLAG (hdma, __HAL_DMA_GET_HT_FLAG_INDEX(hdma));
 790              		.loc 1 213 5 discriminator 173 view .LVU251
 791 0306 03F58063 		add	r3, r3, #1024
 792 030a 9C42     		cmp	r4, r3
 793 030c 00F09180 		beq	.L73
 213:Drivers/STM32F4xx_HAL_Driver/Src/stm32f4xx_hal_dma_ex.c ****     __HAL_DMA_CLEAR_FLAG (hdma, __HAL_DMA_GET_HT_FLAG_INDEX(hdma));
 794              		.loc 1 213 5 view .LVU252
 795 0310 1F4A     		ldr	r2, .L102+16
 796              	.LVL56:
 213:Drivers/STM32F4xx_HAL_Driver/Src/stm32f4xx_hal_dma_ex.c ****     __HAL_DMA_CLEAR_FLAG (hdma, __HAL_DMA_GET_HT_FLAG_INDEX(hdma));
 797              		.loc 1 213 5 view .LVU253
 798 0312 4FF00061 		mov	r1, #134217728
 799              	.LVL57:
 213:Drivers/STM32F4xx_HAL_Driver/Src/stm32f4xx_hal_dma_ex.c ****     __HAL_DMA_CLEAR_FLAG (hdma, __HAL_DMA_GET_HT_FLAG_INDEX(hdma));
 800              		.loc 1 213 5 view .LVU254
 801 0316 9160     		str	r1, [r2, #8]
 802              	.LVL58:
 214:Drivers/STM32F4xx_HAL_Driver/Src/stm32f4xx_hal_dma_ex.c ****     __HAL_DMA_CLEAR_FLAG (hdma, __HAL_DMA_GET_TE_FLAG_INDEX(hdma));
 803              		.loc 1 214 5 is_stmt 1 view .LVU255
 215:Drivers/STM32F4xx_HAL_Driver/Src/stm32f4xx_hal_dma_ex.c ****     __HAL_DMA_CLEAR_FLAG (hdma, __HAL_DMA_GET_DME_FLAG_INDEX(hdma));
 804              		.loc 1 215 5 is_stmt 0 view .LVU256
 805 0318 4FF00073 		mov	r3, #33554432
 214:Drivers/STM32F4xx_HAL_Driver/Src/stm32f4xx_hal_dma_ex.c ****     __HAL_DMA_CLEAR_FLAG (hdma, __HAL_DMA_GET_TE_FLAG_INDEX(hdma));
 806              		.loc 1 214 5 view .LVU257
 807 031c 4FF08065 		mov	r5, #67108864
 216:Drivers/STM32F4xx_HAL_Driver/Src/stm32f4xx_hal_dma_ex.c ****     __HAL_DMA_CLEAR_FLAG (hdma, __HAL_DMA_GET_FE_FLAG_INDEX(hdma));
 808              		.loc 1 216 5 view .LVU258
 809 0320 4FF08071 		mov	r1, #16777216
 214:Drivers/STM32F4xx_HAL_Driver/Src/stm32f4xx_hal_dma_ex.c ****     __HAL_DMA_CLEAR_FLAG (hdma, __HAL_DMA_GET_TE_FLAG_INDEX(hdma));
 810              		.loc 1 214 5 view .LVU259
 811 0324 9560     		str	r5, [r2, #8]
 215:Drivers/STM32F4xx_HAL_Driver/Src/stm32f4xx_hal_dma_ex.c ****     __HAL_DMA_CLEAR_FLAG (hdma, __HAL_DMA_GET_DME_FLAG_INDEX(hdma));
 812              		.loc 1 215 5 is_stmt 1 view .LVU260
 813 0326 9360     		str	r3, [r2, #8]
 216:Drivers/STM32F4xx_HAL_Driver/Src/stm32f4xx_hal_dma_ex.c ****     __HAL_DMA_CLEAR_FLAG (hdma, __HAL_DMA_GET_FE_FLAG_INDEX(hdma));
 814              		.loc 1 216 5 view .LVU261
 217:Drivers/STM32F4xx_HAL_Driver/Src/stm32f4xx_hal_dma_ex.c **** 
 815              		.loc 1 217 5 is_stmt 0 view .LVU262
 816 0328 4FF48003 		mov	r3, #4194304
 216:Drivers/STM32F4xx_HAL_Driver/Src/stm32f4xx_hal_dma_ex.c ****     __HAL_DMA_CLEAR_FLAG (hdma, __HAL_DMA_GET_FE_FLAG_INDEX(hdma));
 817              		.loc 1 216 5 view .LVU263
 818 032c 9160     		str	r1, [r2, #8]
 217:Drivers/STM32F4xx_HAL_Driver/Src/stm32f4xx_hal_dma_ex.c **** 
 819              		.loc 1 217 5 is_stmt 1 view .LVU264
 820              	.L81:
ARM GAS  /tmp/ccooWk4N.s 			page 25


 217:Drivers/STM32F4xx_HAL_Driver/Src/stm32f4xx_hal_dma_ex.c **** 
 821              		.loc 1 217 5 is_stmt 0 discriminator 200 view .LVU265
 822 032e 184A     		ldr	r2, .L102+16
 823 0330 9360     		str	r3, [r2, #8]
 824 0332 F6E6     		b	.L75
 825              	.LVL59:
 826              	.L51:
 213:Drivers/STM32F4xx_HAL_Driver/Src/stm32f4xx_hal_dma_ex.c ****     __HAL_DMA_CLEAR_FLAG (hdma, __HAL_DMA_GET_HT_FLAG_INDEX(hdma));
 827              		.loc 1 213 5 view .LVU266
 828 0334 164A     		ldr	r2, .L102+16
 829              	.LVL60:
 213:Drivers/STM32F4xx_HAL_Driver/Src/stm32f4xx_hal_dma_ex.c ****     __HAL_DMA_CLEAR_FLAG (hdma, __HAL_DMA_GET_HT_FLAG_INDEX(hdma));
 830              		.loc 1 213 5 view .LVU267
 831 0336 2021     		movs	r1, #32
 832              	.LVL61:
 213:Drivers/STM32F4xx_HAL_Driver/Src/stm32f4xx_hal_dma_ex.c ****     __HAL_DMA_CLEAR_FLAG (hdma, __HAL_DMA_GET_HT_FLAG_INDEX(hdma));
 833              		.loc 1 213 5 view .LVU268
 834 0338 D160     		str	r1, [r2, #12]
 835              	.LVL62:
 214:Drivers/STM32F4xx_HAL_Driver/Src/stm32f4xx_hal_dma_ex.c ****     __HAL_DMA_CLEAR_FLAG (hdma, __HAL_DMA_GET_TE_FLAG_INDEX(hdma));
 836              		.loc 1 214 5 is_stmt 1 view .LVU269
 215:Drivers/STM32F4xx_HAL_Driver/Src/stm32f4xx_hal_dma_ex.c ****     __HAL_DMA_CLEAR_FLAG (hdma, __HAL_DMA_GET_DME_FLAG_INDEX(hdma));
 837              		.loc 1 215 5 is_stmt 0 view .LVU270
 838 033a 0823     		movs	r3, #8
 214:Drivers/STM32F4xx_HAL_Driver/Src/stm32f4xx_hal_dma_ex.c ****     __HAL_DMA_CLEAR_FLAG (hdma, __HAL_DMA_GET_TE_FLAG_INDEX(hdma));
 839              		.loc 1 214 5 view .LVU271
 840 033c 1025     		movs	r5, #16
 216:Drivers/STM32F4xx_HAL_Driver/Src/stm32f4xx_hal_dma_ex.c ****     __HAL_DMA_CLEAR_FLAG (hdma, __HAL_DMA_GET_FE_FLAG_INDEX(hdma));
 841              		.loc 1 216 5 view .LVU272
 842 033e 0421     		movs	r1, #4
 214:Drivers/STM32F4xx_HAL_Driver/Src/stm32f4xx_hal_dma_ex.c ****     __HAL_DMA_CLEAR_FLAG (hdma, __HAL_DMA_GET_TE_FLAG_INDEX(hdma));
 843              		.loc 1 214 5 view .LVU273
 844 0340 D560     		str	r5, [r2, #12]
 215:Drivers/STM32F4xx_HAL_Driver/Src/stm32f4xx_hal_dma_ex.c ****     __HAL_DMA_CLEAR_FLAG (hdma, __HAL_DMA_GET_DME_FLAG_INDEX(hdma));
 845              		.loc 1 215 5 is_stmt 1 view .LVU274
 846 0342 D360     		str	r3, [r2, #12]
 216:Drivers/STM32F4xx_HAL_Driver/Src/stm32f4xx_hal_dma_ex.c ****     __HAL_DMA_CLEAR_FLAG (hdma, __HAL_DMA_GET_FE_FLAG_INDEX(hdma));
 847              		.loc 1 216 5 view .LVU275
 217:Drivers/STM32F4xx_HAL_Driver/Src/stm32f4xx_hal_dma_ex.c **** 
 848              		.loc 1 217 5 is_stmt 0 view .LVU276
 849 0344 0123     		movs	r3, #1
 216:Drivers/STM32F4xx_HAL_Driver/Src/stm32f4xx_hal_dma_ex.c ****     __HAL_DMA_CLEAR_FLAG (hdma, __HAL_DMA_GET_FE_FLAG_INDEX(hdma));
 850              		.loc 1 216 5 view .LVU277
 851 0346 D160     		str	r1, [r2, #12]
 217:Drivers/STM32F4xx_HAL_Driver/Src/stm32f4xx_hal_dma_ex.c **** 
 852              		.loc 1 217 5 is_stmt 1 view .LVU278
 853 0348 52E7     		b	.L80
 854              	.LVL63:
 855              	.L63:
 213:Drivers/STM32F4xx_HAL_Driver/Src/stm32f4xx_hal_dma_ex.c ****     __HAL_DMA_CLEAR_FLAG (hdma, __HAL_DMA_GET_HT_FLAG_INDEX(hdma));
 856              		.loc 1 213 5 is_stmt 0 view .LVU279
 857 034a 114A     		ldr	r2, .L102+16
 858              	.LVL64:
 213:Drivers/STM32F4xx_HAL_Driver/Src/stm32f4xx_hal_dma_ex.c ****     __HAL_DMA_CLEAR_FLAG (hdma, __HAL_DMA_GET_HT_FLAG_INDEX(hdma));
 859              		.loc 1 213 5 view .LVU280
 860 034c 2021     		movs	r1, #32
 861              	.LVL65:
ARM GAS  /tmp/ccooWk4N.s 			page 26


 213:Drivers/STM32F4xx_HAL_Driver/Src/stm32f4xx_hal_dma_ex.c ****     __HAL_DMA_CLEAR_FLAG (hdma, __HAL_DMA_GET_HT_FLAG_INDEX(hdma));
 862              		.loc 1 213 5 view .LVU281
 863 034e 9160     		str	r1, [r2, #8]
 864              	.LVL66:
 214:Drivers/STM32F4xx_HAL_Driver/Src/stm32f4xx_hal_dma_ex.c ****     __HAL_DMA_CLEAR_FLAG (hdma, __HAL_DMA_GET_TE_FLAG_INDEX(hdma));
 865              		.loc 1 214 5 is_stmt 1 view .LVU282
 215:Drivers/STM32F4xx_HAL_Driver/Src/stm32f4xx_hal_dma_ex.c ****     __HAL_DMA_CLEAR_FLAG (hdma, __HAL_DMA_GET_DME_FLAG_INDEX(hdma));
 866              		.loc 1 215 5 is_stmt 0 view .LVU283
 867 0350 0823     		movs	r3, #8
 214:Drivers/STM32F4xx_HAL_Driver/Src/stm32f4xx_hal_dma_ex.c ****     __HAL_DMA_CLEAR_FLAG (hdma, __HAL_DMA_GET_TE_FLAG_INDEX(hdma));
 868              		.loc 1 214 5 view .LVU284
 869 0352 1025     		movs	r5, #16
 216:Drivers/STM32F4xx_HAL_Driver/Src/stm32f4xx_hal_dma_ex.c ****     __HAL_DMA_CLEAR_FLAG (hdma, __HAL_DMA_GET_FE_FLAG_INDEX(hdma));
 870              		.loc 1 216 5 view .LVU285
 871 0354 0421     		movs	r1, #4
 214:Drivers/STM32F4xx_HAL_Driver/Src/stm32f4xx_hal_dma_ex.c ****     __HAL_DMA_CLEAR_FLAG (hdma, __HAL_DMA_GET_TE_FLAG_INDEX(hdma));
 872              		.loc 1 214 5 view .LVU286
 873 0356 9560     		str	r5, [r2, #8]
 215:Drivers/STM32F4xx_HAL_Driver/Src/stm32f4xx_hal_dma_ex.c ****     __HAL_DMA_CLEAR_FLAG (hdma, __HAL_DMA_GET_DME_FLAG_INDEX(hdma));
 874              		.loc 1 215 5 is_stmt 1 view .LVU287
 875 0358 9360     		str	r3, [r2, #8]
 216:Drivers/STM32F4xx_HAL_Driver/Src/stm32f4xx_hal_dma_ex.c ****     __HAL_DMA_CLEAR_FLAG (hdma, __HAL_DMA_GET_FE_FLAG_INDEX(hdma));
 876              		.loc 1 216 5 view .LVU288
 217:Drivers/STM32F4xx_HAL_Driver/Src/stm32f4xx_hal_dma_ex.c **** 
 877              		.loc 1 217 5 is_stmt 0 view .LVU289
 878 035a 0123     		movs	r3, #1
 216:Drivers/STM32F4xx_HAL_Driver/Src/stm32f4xx_hal_dma_ex.c ****     __HAL_DMA_CLEAR_FLAG (hdma, __HAL_DMA_GET_FE_FLAG_INDEX(hdma));
 879              		.loc 1 216 5 view .LVU290
 880 035c 9160     		str	r1, [r2, #8]
 217:Drivers/STM32F4xx_HAL_Driver/Src/stm32f4xx_hal_dma_ex.c **** 
 881              		.loc 1 217 5 is_stmt 1 view .LVU291
 882 035e E6E7     		b	.L81
 883              	.LVL67:
 884              	.L25:
 213:Drivers/STM32F4xx_HAL_Driver/Src/stm32f4xx_hal_dma_ex.c ****     __HAL_DMA_CLEAR_FLAG (hdma, __HAL_DMA_GET_HT_FLAG_INDEX(hdma));
 885              		.loc 1 213 5 is_stmt 0 view .LVU292
 886 0360 084B     		ldr	r3, .L102+4
 887 0362 4FF40061 		mov	r1, #2048
 888              	.LVL68:
 213:Drivers/STM32F4xx_HAL_Driver/Src/stm32f4xx_hal_dma_ex.c ****     __HAL_DMA_CLEAR_FLAG (hdma, __HAL_DMA_GET_HT_FLAG_INDEX(hdma));
 889              		.loc 1 213 5 view .LVU293
 890 0366 D960     		str	r1, [r3, #12]
 891              	.LVL69:
 214:Drivers/STM32F4xx_HAL_Driver/Src/stm32f4xx_hal_dma_ex.c ****     __HAL_DMA_CLEAR_FLAG (hdma, __HAL_DMA_GET_TE_FLAG_INDEX(hdma));
 892              		.loc 1 214 5 is_stmt 1 view .LVU294
 215:Drivers/STM32F4xx_HAL_Driver/Src/stm32f4xx_hal_dma_ex.c ****     __HAL_DMA_CLEAR_FLAG (hdma, __HAL_DMA_GET_DME_FLAG_INDEX(hdma));
 893              		.loc 1 215 5 is_stmt 0 view .LVU295
 894 0368 4FF40072 		mov	r2, #512
 895              	.LVL70:
 214:Drivers/STM32F4xx_HAL_Driver/Src/stm32f4xx_hal_dma_ex.c ****     __HAL_DMA_CLEAR_FLAG (hdma, __HAL_DMA_GET_TE_FLAG_INDEX(hdma));
 896              		.loc 1 214 5 view .LVU296
 897 036c 4FF48065 		mov	r5, #1024
 216:Drivers/STM32F4xx_HAL_Driver/Src/stm32f4xx_hal_dma_ex.c ****     __HAL_DMA_CLEAR_FLAG (hdma, __HAL_DMA_GET_FE_FLAG_INDEX(hdma));
 898              		.loc 1 216 5 view .LVU297
 899 0370 4FF48071 		mov	r1, #256
 214:Drivers/STM32F4xx_HAL_Driver/Src/stm32f4xx_hal_dma_ex.c ****     __HAL_DMA_CLEAR_FLAG (hdma, __HAL_DMA_GET_TE_FLAG_INDEX(hdma));
 900              		.loc 1 214 5 view .LVU298
ARM GAS  /tmp/ccooWk4N.s 			page 27


 901 0374 DD60     		str	r5, [r3, #12]
 215:Drivers/STM32F4xx_HAL_Driver/Src/stm32f4xx_hal_dma_ex.c ****     __HAL_DMA_CLEAR_FLAG (hdma, __HAL_DMA_GET_DME_FLAG_INDEX(hdma));
 902              		.loc 1 215 5 is_stmt 1 view .LVU299
 903 0376 DA60     		str	r2, [r3, #12]
 216:Drivers/STM32F4xx_HAL_Driver/Src/stm32f4xx_hal_dma_ex.c ****     __HAL_DMA_CLEAR_FLAG (hdma, __HAL_DMA_GET_FE_FLAG_INDEX(hdma));
 904              		.loc 1 216 5 view .LVU300
 217:Drivers/STM32F4xx_HAL_Driver/Src/stm32f4xx_hal_dma_ex.c **** 
 905              		.loc 1 217 5 is_stmt 0 view .LVU301
 906 0378 4022     		movs	r2, #64
 216:Drivers/STM32F4xx_HAL_Driver/Src/stm32f4xx_hal_dma_ex.c ****     __HAL_DMA_CLEAR_FLAG (hdma, __HAL_DMA_GET_FE_FLAG_INDEX(hdma));
 907              		.loc 1 216 5 view .LVU302
 908 037a D960     		str	r1, [r3, #12]
 217:Drivers/STM32F4xx_HAL_Driver/Src/stm32f4xx_hal_dma_ex.c **** 
 909              		.loc 1 217 5 is_stmt 1 view .LVU303
 910 037c CFE6     		b	.L78
 911              	.L103:
 912 037e 00BF     		.align	2
 913              	.L102:
 914 0380 58640240 		.word	1073898584
 915 0384 00640240 		.word	1073898496
 916 0388 B8600240 		.word	1073897656
 917 038c 58600240 		.word	1073897560
 918 0390 00600240 		.word	1073897472
 919 0394 10600240 		.word	1073897488
 920              	.LVL71:
 921              	.L39:
 213:Drivers/STM32F4xx_HAL_Driver/Src/stm32f4xx_hal_dma_ex.c ****     __HAL_DMA_CLEAR_FLAG (hdma, __HAL_DMA_GET_HT_FLAG_INDEX(hdma));
 922              		.loc 1 213 5 is_stmt 0 view .LVU304
 923 0398 364B     		ldr	r3, .L104
 924 039a 4FF40061 		mov	r1, #2048
 925              	.LVL72:
 213:Drivers/STM32F4xx_HAL_Driver/Src/stm32f4xx_hal_dma_ex.c ****     __HAL_DMA_CLEAR_FLAG (hdma, __HAL_DMA_GET_HT_FLAG_INDEX(hdma));
 926              		.loc 1 213 5 view .LVU305
 927 039e 9960     		str	r1, [r3, #8]
 928              	.LVL73:
 214:Drivers/STM32F4xx_HAL_Driver/Src/stm32f4xx_hal_dma_ex.c ****     __HAL_DMA_CLEAR_FLAG (hdma, __HAL_DMA_GET_TE_FLAG_INDEX(hdma));
 929              		.loc 1 214 5 is_stmt 1 view .LVU306
 215:Drivers/STM32F4xx_HAL_Driver/Src/stm32f4xx_hal_dma_ex.c ****     __HAL_DMA_CLEAR_FLAG (hdma, __HAL_DMA_GET_DME_FLAG_INDEX(hdma));
 930              		.loc 1 215 5 is_stmt 0 view .LVU307
 931 03a0 4FF40072 		mov	r2, #512
 932              	.LVL74:
 214:Drivers/STM32F4xx_HAL_Driver/Src/stm32f4xx_hal_dma_ex.c ****     __HAL_DMA_CLEAR_FLAG (hdma, __HAL_DMA_GET_TE_FLAG_INDEX(hdma));
 933              		.loc 1 214 5 view .LVU308
 934 03a4 4FF48065 		mov	r5, #1024
 216:Drivers/STM32F4xx_HAL_Driver/Src/stm32f4xx_hal_dma_ex.c ****     __HAL_DMA_CLEAR_FLAG (hdma, __HAL_DMA_GET_FE_FLAG_INDEX(hdma));
 935              		.loc 1 216 5 view .LVU309
 936 03a8 4FF48071 		mov	r1, #256
 214:Drivers/STM32F4xx_HAL_Driver/Src/stm32f4xx_hal_dma_ex.c ****     __HAL_DMA_CLEAR_FLAG (hdma, __HAL_DMA_GET_TE_FLAG_INDEX(hdma));
 937              		.loc 1 214 5 view .LVU310
 938 03ac 9D60     		str	r5, [r3, #8]
 215:Drivers/STM32F4xx_HAL_Driver/Src/stm32f4xx_hal_dma_ex.c ****     __HAL_DMA_CLEAR_FLAG (hdma, __HAL_DMA_GET_DME_FLAG_INDEX(hdma));
 939              		.loc 1 215 5 is_stmt 1 view .LVU311
 940 03ae 9A60     		str	r2, [r3, #8]
 216:Drivers/STM32F4xx_HAL_Driver/Src/stm32f4xx_hal_dma_ex.c ****     __HAL_DMA_CLEAR_FLAG (hdma, __HAL_DMA_GET_FE_FLAG_INDEX(hdma));
 941              		.loc 1 216 5 view .LVU312
 217:Drivers/STM32F4xx_HAL_Driver/Src/stm32f4xx_hal_dma_ex.c **** 
 942              		.loc 1 217 5 is_stmt 0 view .LVU313
ARM GAS  /tmp/ccooWk4N.s 			page 28


 943 03b0 4022     		movs	r2, #64
 216:Drivers/STM32F4xx_HAL_Driver/Src/stm32f4xx_hal_dma_ex.c ****     __HAL_DMA_CLEAR_FLAG (hdma, __HAL_DMA_GET_FE_FLAG_INDEX(hdma));
 944              		.loc 1 216 5 view .LVU314
 945 03b2 9960     		str	r1, [r3, #8]
 217:Drivers/STM32F4xx_HAL_Driver/Src/stm32f4xx_hal_dma_ex.c **** 
 946              		.loc 1 217 5 is_stmt 1 view .LVU315
 947 03b4 6BE7     		b	.L79
 948              	.LVL75:
 949              	.L67:
 213:Drivers/STM32F4xx_HAL_Driver/Src/stm32f4xx_hal_dma_ex.c ****     __HAL_DMA_CLEAR_FLAG (hdma, __HAL_DMA_GET_HT_FLAG_INDEX(hdma));
 950              		.loc 1 213 5 is_stmt 0 view .LVU316
 951 03b6 304A     		ldr	r2, .L104+4
 952              	.LVL76:
 213:Drivers/STM32F4xx_HAL_Driver/Src/stm32f4xx_hal_dma_ex.c ****     __HAL_DMA_CLEAR_FLAG (hdma, __HAL_DMA_GET_HT_FLAG_INDEX(hdma));
 953              		.loc 1 213 5 view .LVU317
 954 03b8 4FF40061 		mov	r1, #2048
 955              	.LVL77:
 213:Drivers/STM32F4xx_HAL_Driver/Src/stm32f4xx_hal_dma_ex.c ****     __HAL_DMA_CLEAR_FLAG (hdma, __HAL_DMA_GET_HT_FLAG_INDEX(hdma));
 956              		.loc 1 213 5 view .LVU318
 957 03bc 9160     		str	r1, [r2, #8]
 958              	.LVL78:
 214:Drivers/STM32F4xx_HAL_Driver/Src/stm32f4xx_hal_dma_ex.c ****     __HAL_DMA_CLEAR_FLAG (hdma, __HAL_DMA_GET_TE_FLAG_INDEX(hdma));
 959              		.loc 1 214 5 is_stmt 1 view .LVU319
 215:Drivers/STM32F4xx_HAL_Driver/Src/stm32f4xx_hal_dma_ex.c ****     __HAL_DMA_CLEAR_FLAG (hdma, __HAL_DMA_GET_DME_FLAG_INDEX(hdma));
 960              		.loc 1 215 5 is_stmt 0 view .LVU320
 961 03be 4FF40073 		mov	r3, #512
 214:Drivers/STM32F4xx_HAL_Driver/Src/stm32f4xx_hal_dma_ex.c ****     __HAL_DMA_CLEAR_FLAG (hdma, __HAL_DMA_GET_TE_FLAG_INDEX(hdma));
 962              		.loc 1 214 5 view .LVU321
 963 03c2 4FF48065 		mov	r5, #1024
 216:Drivers/STM32F4xx_HAL_Driver/Src/stm32f4xx_hal_dma_ex.c ****     __HAL_DMA_CLEAR_FLAG (hdma, __HAL_DMA_GET_FE_FLAG_INDEX(hdma));
 964              		.loc 1 216 5 view .LVU322
 965 03c6 4FF48071 		mov	r1, #256
 214:Drivers/STM32F4xx_HAL_Driver/Src/stm32f4xx_hal_dma_ex.c ****     __HAL_DMA_CLEAR_FLAG (hdma, __HAL_DMA_GET_TE_FLAG_INDEX(hdma));
 966              		.loc 1 214 5 view .LVU323
 967 03ca 9560     		str	r5, [r2, #8]
 215:Drivers/STM32F4xx_HAL_Driver/Src/stm32f4xx_hal_dma_ex.c ****     __HAL_DMA_CLEAR_FLAG (hdma, __HAL_DMA_GET_DME_FLAG_INDEX(hdma));
 968              		.loc 1 215 5 is_stmt 1 view .LVU324
 969 03cc 9360     		str	r3, [r2, #8]
 216:Drivers/STM32F4xx_HAL_Driver/Src/stm32f4xx_hal_dma_ex.c ****     __HAL_DMA_CLEAR_FLAG (hdma, __HAL_DMA_GET_FE_FLAG_INDEX(hdma));
 970              		.loc 1 216 5 view .LVU325
 217:Drivers/STM32F4xx_HAL_Driver/Src/stm32f4xx_hal_dma_ex.c **** 
 971              		.loc 1 217 5 is_stmt 0 view .LVU326
 972 03ce 4023     		movs	r3, #64
 216:Drivers/STM32F4xx_HAL_Driver/Src/stm32f4xx_hal_dma_ex.c ****     __HAL_DMA_CLEAR_FLAG (hdma, __HAL_DMA_GET_FE_FLAG_INDEX(hdma));
 973              		.loc 1 216 5 view .LVU327
 974 03d0 9160     		str	r1, [r2, #8]
 217:Drivers/STM32F4xx_HAL_Driver/Src/stm32f4xx_hal_dma_ex.c **** 
 975              		.loc 1 217 5 is_stmt 1 view .LVU328
 976 03d2 ACE7     		b	.L81
 977              	.LVL79:
 978              	.L53:
 213:Drivers/STM32F4xx_HAL_Driver/Src/stm32f4xx_hal_dma_ex.c ****     __HAL_DMA_CLEAR_FLAG (hdma, __HAL_DMA_GET_HT_FLAG_INDEX(hdma));
 979              		.loc 1 213 5 is_stmt 0 view .LVU329
 980 03d4 284A     		ldr	r2, .L104+4
 981              	.LVL80:
 213:Drivers/STM32F4xx_HAL_Driver/Src/stm32f4xx_hal_dma_ex.c ****     __HAL_DMA_CLEAR_FLAG (hdma, __HAL_DMA_GET_HT_FLAG_INDEX(hdma));
 982              		.loc 1 213 5 view .LVU330
ARM GAS  /tmp/ccooWk4N.s 			page 29


 983 03d6 4FF40061 		mov	r1, #2048
 984              	.LVL81:
 213:Drivers/STM32F4xx_HAL_Driver/Src/stm32f4xx_hal_dma_ex.c ****     __HAL_DMA_CLEAR_FLAG (hdma, __HAL_DMA_GET_HT_FLAG_INDEX(hdma));
 985              		.loc 1 213 5 view .LVU331
 986 03da D160     		str	r1, [r2, #12]
 987              	.LVL82:
 214:Drivers/STM32F4xx_HAL_Driver/Src/stm32f4xx_hal_dma_ex.c ****     __HAL_DMA_CLEAR_FLAG (hdma, __HAL_DMA_GET_TE_FLAG_INDEX(hdma));
 988              		.loc 1 214 5 is_stmt 1 view .LVU332
 215:Drivers/STM32F4xx_HAL_Driver/Src/stm32f4xx_hal_dma_ex.c ****     __HAL_DMA_CLEAR_FLAG (hdma, __HAL_DMA_GET_DME_FLAG_INDEX(hdma));
 989              		.loc 1 215 5 is_stmt 0 view .LVU333
 990 03dc 4FF40073 		mov	r3, #512
 214:Drivers/STM32F4xx_HAL_Driver/Src/stm32f4xx_hal_dma_ex.c ****     __HAL_DMA_CLEAR_FLAG (hdma, __HAL_DMA_GET_TE_FLAG_INDEX(hdma));
 991              		.loc 1 214 5 view .LVU334
 992 03e0 4FF48065 		mov	r5, #1024
 216:Drivers/STM32F4xx_HAL_Driver/Src/stm32f4xx_hal_dma_ex.c ****     __HAL_DMA_CLEAR_FLAG (hdma, __HAL_DMA_GET_FE_FLAG_INDEX(hdma));
 993              		.loc 1 216 5 view .LVU335
 994 03e4 4FF48071 		mov	r1, #256
 214:Drivers/STM32F4xx_HAL_Driver/Src/stm32f4xx_hal_dma_ex.c ****     __HAL_DMA_CLEAR_FLAG (hdma, __HAL_DMA_GET_TE_FLAG_INDEX(hdma));
 995              		.loc 1 214 5 view .LVU336
 996 03e8 D560     		str	r5, [r2, #12]
 215:Drivers/STM32F4xx_HAL_Driver/Src/stm32f4xx_hal_dma_ex.c ****     __HAL_DMA_CLEAR_FLAG (hdma, __HAL_DMA_GET_DME_FLAG_INDEX(hdma));
 997              		.loc 1 215 5 is_stmt 1 view .LVU337
 998 03ea D360     		str	r3, [r2, #12]
 216:Drivers/STM32F4xx_HAL_Driver/Src/stm32f4xx_hal_dma_ex.c ****     __HAL_DMA_CLEAR_FLAG (hdma, __HAL_DMA_GET_FE_FLAG_INDEX(hdma));
 999              		.loc 1 216 5 view .LVU338
 217:Drivers/STM32F4xx_HAL_Driver/Src/stm32f4xx_hal_dma_ex.c **** 
 1000              		.loc 1 217 5 is_stmt 0 view .LVU339
 1001 03ec 4023     		movs	r3, #64
 216:Drivers/STM32F4xx_HAL_Driver/Src/stm32f4xx_hal_dma_ex.c ****     __HAL_DMA_CLEAR_FLAG (hdma, __HAL_DMA_GET_FE_FLAG_INDEX(hdma));
 1002              		.loc 1 216 5 view .LVU340
 1003 03ee D160     		str	r1, [r2, #12]
 217:Drivers/STM32F4xx_HAL_Driver/Src/stm32f4xx_hal_dma_ex.c **** 
 1004              		.loc 1 217 5 is_stmt 1 view .LVU341
 1005 03f0 FEE6     		b	.L80
 1006              	.LVL83:
 1007              	.L31:
 213:Drivers/STM32F4xx_HAL_Driver/Src/stm32f4xx_hal_dma_ex.c ****     __HAL_DMA_CLEAR_FLAG (hdma, __HAL_DMA_GET_HT_FLAG_INDEX(hdma));
 1008              		.loc 1 213 5 is_stmt 0 view .LVU342
 1009 03f2 204B     		ldr	r3, .L104
 1010 03f4 4FF40011 		mov	r1, #2097152
 1011              	.LVL84:
 213:Drivers/STM32F4xx_HAL_Driver/Src/stm32f4xx_hal_dma_ex.c ****     __HAL_DMA_CLEAR_FLAG (hdma, __HAL_DMA_GET_HT_FLAG_INDEX(hdma));
 1012              		.loc 1 213 5 view .LVU343
 1013 03f8 D960     		str	r1, [r3, #12]
 1014              	.LVL85:
 214:Drivers/STM32F4xx_HAL_Driver/Src/stm32f4xx_hal_dma_ex.c ****     __HAL_DMA_CLEAR_FLAG (hdma, __HAL_DMA_GET_TE_FLAG_INDEX(hdma));
 1015              		.loc 1 214 5 is_stmt 1 view .LVU344
 215:Drivers/STM32F4xx_HAL_Driver/Src/stm32f4xx_hal_dma_ex.c ****     __HAL_DMA_CLEAR_FLAG (hdma, __HAL_DMA_GET_DME_FLAG_INDEX(hdma));
 1016              		.loc 1 215 5 is_stmt 0 view .LVU345
 1017 03fa 4FF40022 		mov	r2, #524288
 1018              	.LVL86:
 214:Drivers/STM32F4xx_HAL_Driver/Src/stm32f4xx_hal_dma_ex.c ****     __HAL_DMA_CLEAR_FLAG (hdma, __HAL_DMA_GET_TE_FLAG_INDEX(hdma));
 1019              		.loc 1 214 5 view .LVU346
 1020 03fe 4FF48015 		mov	r5, #1048576
 216:Drivers/STM32F4xx_HAL_Driver/Src/stm32f4xx_hal_dma_ex.c ****     __HAL_DMA_CLEAR_FLAG (hdma, __HAL_DMA_GET_FE_FLAG_INDEX(hdma));
 1021              		.loc 1 216 5 view .LVU347
 1022 0402 4FF48021 		mov	r1, #262144
ARM GAS  /tmp/ccooWk4N.s 			page 30


 214:Drivers/STM32F4xx_HAL_Driver/Src/stm32f4xx_hal_dma_ex.c ****     __HAL_DMA_CLEAR_FLAG (hdma, __HAL_DMA_GET_TE_FLAG_INDEX(hdma));
 1023              		.loc 1 214 5 view .LVU348
 1024 0406 DD60     		str	r5, [r3, #12]
 215:Drivers/STM32F4xx_HAL_Driver/Src/stm32f4xx_hal_dma_ex.c ****     __HAL_DMA_CLEAR_FLAG (hdma, __HAL_DMA_GET_DME_FLAG_INDEX(hdma));
 1025              		.loc 1 215 5 is_stmt 1 view .LVU349
 1026 0408 DA60     		str	r2, [r3, #12]
 216:Drivers/STM32F4xx_HAL_Driver/Src/stm32f4xx_hal_dma_ex.c ****     __HAL_DMA_CLEAR_FLAG (hdma, __HAL_DMA_GET_FE_FLAG_INDEX(hdma));
 1027              		.loc 1 216 5 view .LVU350
 217:Drivers/STM32F4xx_HAL_Driver/Src/stm32f4xx_hal_dma_ex.c **** 
 1028              		.loc 1 217 5 is_stmt 0 view .LVU351
 1029 040a 4FF48032 		mov	r2, #65536
 216:Drivers/STM32F4xx_HAL_Driver/Src/stm32f4xx_hal_dma_ex.c ****     __HAL_DMA_CLEAR_FLAG (hdma, __HAL_DMA_GET_FE_FLAG_INDEX(hdma));
 1030              		.loc 1 216 5 view .LVU352
 1031 040e D960     		str	r1, [r3, #12]
 217:Drivers/STM32F4xx_HAL_Driver/Src/stm32f4xx_hal_dma_ex.c **** 
 1032              		.loc 1 217 5 is_stmt 1 view .LVU353
 1033 0410 85E6     		b	.L78
 1034              	.LVL87:
 1035              	.L46:
 213:Drivers/STM32F4xx_HAL_Driver/Src/stm32f4xx_hal_dma_ex.c ****     __HAL_DMA_CLEAR_FLAG (hdma, __HAL_DMA_GET_HT_FLAG_INDEX(hdma));
 1036              		.loc 1 213 5 is_stmt 0 view .LVU354
 1037 0412 184B     		ldr	r3, .L104
 1038 0414 4FF40011 		mov	r1, #2097152
 1039              	.LVL88:
 213:Drivers/STM32F4xx_HAL_Driver/Src/stm32f4xx_hal_dma_ex.c ****     __HAL_DMA_CLEAR_FLAG (hdma, __HAL_DMA_GET_HT_FLAG_INDEX(hdma));
 1040              		.loc 1 213 5 view .LVU355
 1041 0418 9960     		str	r1, [r3, #8]
 1042              	.LVL89:
 214:Drivers/STM32F4xx_HAL_Driver/Src/stm32f4xx_hal_dma_ex.c ****     __HAL_DMA_CLEAR_FLAG (hdma, __HAL_DMA_GET_TE_FLAG_INDEX(hdma));
 1043              		.loc 1 214 5 is_stmt 1 view .LVU356
 215:Drivers/STM32F4xx_HAL_Driver/Src/stm32f4xx_hal_dma_ex.c ****     __HAL_DMA_CLEAR_FLAG (hdma, __HAL_DMA_GET_DME_FLAG_INDEX(hdma));
 1044              		.loc 1 215 5 is_stmt 0 view .LVU357
 1045 041a 4FF40022 		mov	r2, #524288
 1046              	.LVL90:
 214:Drivers/STM32F4xx_HAL_Driver/Src/stm32f4xx_hal_dma_ex.c ****     __HAL_DMA_CLEAR_FLAG (hdma, __HAL_DMA_GET_TE_FLAG_INDEX(hdma));
 1047              		.loc 1 214 5 view .LVU358
 1048 041e 4FF48015 		mov	r5, #1048576
 216:Drivers/STM32F4xx_HAL_Driver/Src/stm32f4xx_hal_dma_ex.c ****     __HAL_DMA_CLEAR_FLAG (hdma, __HAL_DMA_GET_FE_FLAG_INDEX(hdma));
 1049              		.loc 1 216 5 view .LVU359
 1050 0422 4FF48021 		mov	r1, #262144
 214:Drivers/STM32F4xx_HAL_Driver/Src/stm32f4xx_hal_dma_ex.c ****     __HAL_DMA_CLEAR_FLAG (hdma, __HAL_DMA_GET_TE_FLAG_INDEX(hdma));
 1051              		.loc 1 214 5 view .LVU360
 1052 0426 9D60     		str	r5, [r3, #8]
 215:Drivers/STM32F4xx_HAL_Driver/Src/stm32f4xx_hal_dma_ex.c ****     __HAL_DMA_CLEAR_FLAG (hdma, __HAL_DMA_GET_DME_FLAG_INDEX(hdma));
 1053              		.loc 1 215 5 is_stmt 1 view .LVU361
 1054 0428 9A60     		str	r2, [r3, #8]
 216:Drivers/STM32F4xx_HAL_Driver/Src/stm32f4xx_hal_dma_ex.c ****     __HAL_DMA_CLEAR_FLAG (hdma, __HAL_DMA_GET_FE_FLAG_INDEX(hdma));
 1055              		.loc 1 216 5 view .LVU362
 217:Drivers/STM32F4xx_HAL_Driver/Src/stm32f4xx_hal_dma_ex.c **** 
 1056              		.loc 1 217 5 is_stmt 0 view .LVU363
 1057 042a 4FF48032 		mov	r2, #65536
 216:Drivers/STM32F4xx_HAL_Driver/Src/stm32f4xx_hal_dma_ex.c ****     __HAL_DMA_CLEAR_FLAG (hdma, __HAL_DMA_GET_FE_FLAG_INDEX(hdma));
 1058              		.loc 1 216 5 view .LVU364
 1059 042e 9960     		str	r1, [r3, #8]
 217:Drivers/STM32F4xx_HAL_Driver/Src/stm32f4xx_hal_dma_ex.c **** 
 1060              		.loc 1 217 5 is_stmt 1 view .LVU365
 1061 0430 2DE7     		b	.L79
ARM GAS  /tmp/ccooWk4N.s 			page 31


 1062              	.LVL91:
 1063              	.L73:
 213:Drivers/STM32F4xx_HAL_Driver/Src/stm32f4xx_hal_dma_ex.c ****     __HAL_DMA_CLEAR_FLAG (hdma, __HAL_DMA_GET_HT_FLAG_INDEX(hdma));
 1064              		.loc 1 213 5 is_stmt 0 view .LVU366
 1065 0432 114A     		ldr	r2, .L104+4
 1066              	.LVL92:
 213:Drivers/STM32F4xx_HAL_Driver/Src/stm32f4xx_hal_dma_ex.c ****     __HAL_DMA_CLEAR_FLAG (hdma, __HAL_DMA_GET_HT_FLAG_INDEX(hdma));
 1067              		.loc 1 213 5 view .LVU367
 1068 0434 4FF40011 		mov	r1, #2097152
 1069              	.LVL93:
 213:Drivers/STM32F4xx_HAL_Driver/Src/stm32f4xx_hal_dma_ex.c ****     __HAL_DMA_CLEAR_FLAG (hdma, __HAL_DMA_GET_HT_FLAG_INDEX(hdma));
 1070              		.loc 1 213 5 view .LVU368
 1071 0438 9160     		str	r1, [r2, #8]
 1072              	.LVL94:
 214:Drivers/STM32F4xx_HAL_Driver/Src/stm32f4xx_hal_dma_ex.c ****     __HAL_DMA_CLEAR_FLAG (hdma, __HAL_DMA_GET_TE_FLAG_INDEX(hdma));
 1073              		.loc 1 214 5 is_stmt 1 view .LVU369
 215:Drivers/STM32F4xx_HAL_Driver/Src/stm32f4xx_hal_dma_ex.c ****     __HAL_DMA_CLEAR_FLAG (hdma, __HAL_DMA_GET_DME_FLAG_INDEX(hdma));
 1074              		.loc 1 215 5 is_stmt 0 view .LVU370
 1075 043a 4FF40023 		mov	r3, #524288
 214:Drivers/STM32F4xx_HAL_Driver/Src/stm32f4xx_hal_dma_ex.c ****     __HAL_DMA_CLEAR_FLAG (hdma, __HAL_DMA_GET_TE_FLAG_INDEX(hdma));
 1076              		.loc 1 214 5 view .LVU371
 1077 043e 4FF48015 		mov	r5, #1048576
 216:Drivers/STM32F4xx_HAL_Driver/Src/stm32f4xx_hal_dma_ex.c ****     __HAL_DMA_CLEAR_FLAG (hdma, __HAL_DMA_GET_FE_FLAG_INDEX(hdma));
 1078              		.loc 1 216 5 view .LVU372
 1079 0442 4FF48021 		mov	r1, #262144
 214:Drivers/STM32F4xx_HAL_Driver/Src/stm32f4xx_hal_dma_ex.c ****     __HAL_DMA_CLEAR_FLAG (hdma, __HAL_DMA_GET_TE_FLAG_INDEX(hdma));
 1080              		.loc 1 214 5 view .LVU373
 1081 0446 9560     		str	r5, [r2, #8]
 215:Drivers/STM32F4xx_HAL_Driver/Src/stm32f4xx_hal_dma_ex.c ****     __HAL_DMA_CLEAR_FLAG (hdma, __HAL_DMA_GET_DME_FLAG_INDEX(hdma));
 1082              		.loc 1 215 5 is_stmt 1 view .LVU374
 1083 0448 9360     		str	r3, [r2, #8]
 216:Drivers/STM32F4xx_HAL_Driver/Src/stm32f4xx_hal_dma_ex.c ****     __HAL_DMA_CLEAR_FLAG (hdma, __HAL_DMA_GET_FE_FLAG_INDEX(hdma));
 1084              		.loc 1 216 5 view .LVU375
 217:Drivers/STM32F4xx_HAL_Driver/Src/stm32f4xx_hal_dma_ex.c **** 
 1085              		.loc 1 217 5 is_stmt 0 view .LVU376
 1086 044a 4FF48033 		mov	r3, #65536
 216:Drivers/STM32F4xx_HAL_Driver/Src/stm32f4xx_hal_dma_ex.c ****     __HAL_DMA_CLEAR_FLAG (hdma, __HAL_DMA_GET_FE_FLAG_INDEX(hdma));
 1087              		.loc 1 216 5 view .LVU377
 1088 044e 9160     		str	r1, [r2, #8]
 217:Drivers/STM32F4xx_HAL_Driver/Src/stm32f4xx_hal_dma_ex.c **** 
 1089              		.loc 1 217 5 is_stmt 1 view .LVU378
 1090 0450 6DE7     		b	.L81
 1091              	.LVL95:
 1092              	.L59:
 213:Drivers/STM32F4xx_HAL_Driver/Src/stm32f4xx_hal_dma_ex.c ****     __HAL_DMA_CLEAR_FLAG (hdma, __HAL_DMA_GET_HT_FLAG_INDEX(hdma));
 1093              		.loc 1 213 5 is_stmt 0 view .LVU379
 1094 0452 094A     		ldr	r2, .L104+4
 1095              	.LVL96:
 213:Drivers/STM32F4xx_HAL_Driver/Src/stm32f4xx_hal_dma_ex.c ****     __HAL_DMA_CLEAR_FLAG (hdma, __HAL_DMA_GET_HT_FLAG_INDEX(hdma));
 1096              		.loc 1 213 5 view .LVU380
 1097 0454 4FF40011 		mov	r1, #2097152
 1098              	.LVL97:
 213:Drivers/STM32F4xx_HAL_Driver/Src/stm32f4xx_hal_dma_ex.c ****     __HAL_DMA_CLEAR_FLAG (hdma, __HAL_DMA_GET_HT_FLAG_INDEX(hdma));
 1099              		.loc 1 213 5 view .LVU381
 1100 0458 D160     		str	r1, [r2, #12]
 1101              	.LVL98:
 214:Drivers/STM32F4xx_HAL_Driver/Src/stm32f4xx_hal_dma_ex.c ****     __HAL_DMA_CLEAR_FLAG (hdma, __HAL_DMA_GET_TE_FLAG_INDEX(hdma));
ARM GAS  /tmp/ccooWk4N.s 			page 32


 1102              		.loc 1 214 5 is_stmt 1 view .LVU382
 215:Drivers/STM32F4xx_HAL_Driver/Src/stm32f4xx_hal_dma_ex.c ****     __HAL_DMA_CLEAR_FLAG (hdma, __HAL_DMA_GET_DME_FLAG_INDEX(hdma));
 1103              		.loc 1 215 5 is_stmt 0 view .LVU383
 1104 045a 4FF40023 		mov	r3, #524288
 214:Drivers/STM32F4xx_HAL_Driver/Src/stm32f4xx_hal_dma_ex.c ****     __HAL_DMA_CLEAR_FLAG (hdma, __HAL_DMA_GET_TE_FLAG_INDEX(hdma));
 1105              		.loc 1 214 5 view .LVU384
 1106 045e 4FF48015 		mov	r5, #1048576
 216:Drivers/STM32F4xx_HAL_Driver/Src/stm32f4xx_hal_dma_ex.c ****     __HAL_DMA_CLEAR_FLAG (hdma, __HAL_DMA_GET_FE_FLAG_INDEX(hdma));
 1107              		.loc 1 216 5 view .LVU385
 1108 0462 4FF48021 		mov	r1, #262144
 214:Drivers/STM32F4xx_HAL_Driver/Src/stm32f4xx_hal_dma_ex.c ****     __HAL_DMA_CLEAR_FLAG (hdma, __HAL_DMA_GET_TE_FLAG_INDEX(hdma));
 1109              		.loc 1 214 5 view .LVU386
 1110 0466 D560     		str	r5, [r2, #12]
 215:Drivers/STM32F4xx_HAL_Driver/Src/stm32f4xx_hal_dma_ex.c ****     __HAL_DMA_CLEAR_FLAG (hdma, __HAL_DMA_GET_DME_FLAG_INDEX(hdma));
 1111              		.loc 1 215 5 is_stmt 1 view .LVU387
 1112 0468 D360     		str	r3, [r2, #12]
 216:Drivers/STM32F4xx_HAL_Driver/Src/stm32f4xx_hal_dma_ex.c ****     __HAL_DMA_CLEAR_FLAG (hdma, __HAL_DMA_GET_FE_FLAG_INDEX(hdma));
 1113              		.loc 1 216 5 view .LVU388
 217:Drivers/STM32F4xx_HAL_Driver/Src/stm32f4xx_hal_dma_ex.c **** 
 1114              		.loc 1 217 5 is_stmt 0 view .LVU389
 1115 046a 4FF48033 		mov	r3, #65536
 216:Drivers/STM32F4xx_HAL_Driver/Src/stm32f4xx_hal_dma_ex.c ****     __HAL_DMA_CLEAR_FLAG (hdma, __HAL_DMA_GET_FE_FLAG_INDEX(hdma));
 1116              		.loc 1 216 5 view .LVU390
 1117 046e D160     		str	r1, [r2, #12]
 217:Drivers/STM32F4xx_HAL_Driver/Src/stm32f4xx_hal_dma_ex.c **** 
 1118              		.loc 1 217 5 is_stmt 1 view .LVU391
 1119 0470 BEE6     		b	.L80
 1120              	.L105:
 1121 0472 00BF     		.align	2
 1122              	.L104:
 1123 0474 00640240 		.word	1073898496
 1124 0478 00600240 		.word	1073897472
 1125              		.cfi_endproc
 1126              	.LFE127:
 1128              		.section	.text.HAL_DMAEx_ChangeMemory,"ax",%progbits
 1129              		.align	1
 1130              		.p2align 2,,3
 1131              		.global	HAL_DMAEx_ChangeMemory
 1132              		.syntax unified
 1133              		.thumb
 1134              		.thumb_func
 1135              		.fpu fpv4-sp-d16
 1137              	HAL_DMAEx_ChangeMemory:
 1138              	.LVL99:
 1139              	.LFB128:
 257:Drivers/STM32F4xx_HAL_Driver/Src/stm32f4xx_hal_dma_ex.c ****   if(memory == MEMORY0)
 1140              		.loc 1 257 1 view -0
 1141              		.cfi_startproc
 1142              		@ args = 0, pretend = 0, frame = 0
 1143              		@ frame_needed = 0, uses_anonymous_args = 0
 1144              		@ link register save eliminated.
 258:Drivers/STM32F4xx_HAL_Driver/Src/stm32f4xx_hal_dma_ex.c ****   {
 1145              		.loc 1 258 3 view .LVU393
 1146 0000 0368     		ldr	r3, [r0]
 258:Drivers/STM32F4xx_HAL_Driver/Src/stm32f4xx_hal_dma_ex.c ****   {
 1147              		.loc 1 258 5 is_stmt 0 view .LVU394
 1148 0002 12B9     		cbnz	r2, .L107
ARM GAS  /tmp/ccooWk4N.s 			page 33


 261:Drivers/STM32F4xx_HAL_Driver/Src/stm32f4xx_hal_dma_ex.c ****   }
 1149              		.loc 1 261 5 is_stmt 1 view .LVU395
 261:Drivers/STM32F4xx_HAL_Driver/Src/stm32f4xx_hal_dma_ex.c ****   }
 1150              		.loc 1 261 26 is_stmt 0 view .LVU396
 1151 0004 D960     		str	r1, [r3, #12]
 269:Drivers/STM32F4xx_HAL_Driver/Src/stm32f4xx_hal_dma_ex.c **** }
 1152              		.loc 1 269 3 is_stmt 1 view .LVU397
 270:Drivers/STM32F4xx_HAL_Driver/Src/stm32f4xx_hal_dma_ex.c **** 
 1153              		.loc 1 270 1 is_stmt 0 view .LVU398
 1154 0006 0020     		movs	r0, #0
 1155              	.LVL100:
 270:Drivers/STM32F4xx_HAL_Driver/Src/stm32f4xx_hal_dma_ex.c **** 
 1156              		.loc 1 270 1 view .LVU399
 1157 0008 7047     		bx	lr
 1158              	.LVL101:
 1159              	.L107:
 266:Drivers/STM32F4xx_HAL_Driver/Src/stm32f4xx_hal_dma_ex.c ****   }
 1160              		.loc 1 266 5 is_stmt 1 view .LVU400
 266:Drivers/STM32F4xx_HAL_Driver/Src/stm32f4xx_hal_dma_ex.c ****   }
 1161              		.loc 1 266 26 is_stmt 0 view .LVU401
 1162 000a 1961     		str	r1, [r3, #16]
 269:Drivers/STM32F4xx_HAL_Driver/Src/stm32f4xx_hal_dma_ex.c **** }
 1163              		.loc 1 269 3 is_stmt 1 view .LVU402
 270:Drivers/STM32F4xx_HAL_Driver/Src/stm32f4xx_hal_dma_ex.c **** 
 1164              		.loc 1 270 1 is_stmt 0 view .LVU403
 1165 000c 0020     		movs	r0, #0
 1166              	.LVL102:
 270:Drivers/STM32F4xx_HAL_Driver/Src/stm32f4xx_hal_dma_ex.c **** 
 1167              		.loc 1 270 1 view .LVU404
 1168 000e 7047     		bx	lr
 1169              		.cfi_endproc
 1170              	.LFE128:
 1172              		.text
 1173              	.Letext0:
 1174              		.file 2 "/usr/arm-none-eabi/include/machine/_default_types.h"
 1175              		.file 3 "/usr/arm-none-eabi/include/sys/_stdint.h"
 1176              		.file 4 "Drivers/CMSIS/Include/core_cm4.h"
 1177              		.file 5 "Drivers/CMSIS/Device/ST/STM32F4xx/Include/system_stm32f4xx.h"
 1178              		.file 6 "Drivers/CMSIS/Device/ST/STM32F4xx/Include/stm32f401xe.h"
 1179              		.file 7 "/usr/arm-none-eabi/include/sys/lock.h"
 1180              		.file 8 "/usr/arm-none-eabi/include/sys/_types.h"
 1181              		.file 9 "/usr/lib/gcc/arm-none-eabi/8.2.0/include/stddef.h"
 1182              		.file 10 "/usr/arm-none-eabi/include/sys/reent.h"
 1183              		.file 11 "Drivers/STM32F4xx_HAL_Driver/Inc/stm32f4xx_hal_def.h"
 1184              		.file 12 "Drivers/STM32F4xx_HAL_Driver/Inc/stm32f4xx_hal_dma.h"
 1185              		.file 13 "Drivers/STM32F4xx_HAL_Driver/Inc/stm32f4xx_hal_dma_ex.h"
ARM GAS  /tmp/ccooWk4N.s 			page 34

