ARM GAS  /tmp/cc8pL1nJ.s 			page 1


   1              		.cpu cortex-m4
   2              		.eabi_attribute 27, 1
   3              		.eabi_attribute 28, 1
   4              		.eabi_attribute 20, 1
   5              		.eabi_attribute 21, 1
   6              		.eabi_attribute 23, 3
   7              		.eabi_attribute 24, 1
   8              		.eabi_attribute 25, 1
   9              		.eabi_attribute 26, 1
  10              		.eabi_attribute 30, 2
  11              		.eabi_attribute 34, 1
  12              		.eabi_attribute 18, 4
  13              		.file	"stm32f4xx_hal_rcc.c"
  14              		.text
  15              	.Ltext0:
  16              		.cfi_sections	.debug_frame
  17              		.section	.text.HAL_RCC_DeInit,"ax",%progbits
  18              		.align	1
  19              		.p2align 2,,3
  20              		.weak	HAL_RCC_DeInit
  21              		.arch armv7e-m
  22              		.syntax unified
  23              		.thumb
  24              		.thumb_func
  25              		.fpu fpv4-sp-d16
  27              	HAL_RCC_DeInit:
  28              	.LFB126:
  29              		.file 1 "Drivers/STM32F4xx_HAL_Driver/Src/stm32f4xx_hal_rcc.c"
   1:Drivers/STM32F4xx_HAL_Driver/Src/stm32f4xx_hal_rcc.c **** /**
   2:Drivers/STM32F4xx_HAL_Driver/Src/stm32f4xx_hal_rcc.c ****   ******************************************************************************
   3:Drivers/STM32F4xx_HAL_Driver/Src/stm32f4xx_hal_rcc.c ****   * @file    stm32f4xx_hal_rcc.c
   4:Drivers/STM32F4xx_HAL_Driver/Src/stm32f4xx_hal_rcc.c ****   * @author  MCD Application Team
   5:Drivers/STM32F4xx_HAL_Driver/Src/stm32f4xx_hal_rcc.c ****   * @brief   RCC HAL module driver.
   6:Drivers/STM32F4xx_HAL_Driver/Src/stm32f4xx_hal_rcc.c ****   *          This file provides firmware functions to manage the following
   7:Drivers/STM32F4xx_HAL_Driver/Src/stm32f4xx_hal_rcc.c ****   *          functionalities of the Reset and Clock Control (RCC) peripheral:
   8:Drivers/STM32F4xx_HAL_Driver/Src/stm32f4xx_hal_rcc.c ****   *           + Initialization and de-initialization functions
   9:Drivers/STM32F4xx_HAL_Driver/Src/stm32f4xx_hal_rcc.c ****   *           + Peripheral Control functions
  10:Drivers/STM32F4xx_HAL_Driver/Src/stm32f4xx_hal_rcc.c ****   *
  11:Drivers/STM32F4xx_HAL_Driver/Src/stm32f4xx_hal_rcc.c ****   @verbatim
  12:Drivers/STM32F4xx_HAL_Driver/Src/stm32f4xx_hal_rcc.c ****   ==============================================================================
  13:Drivers/STM32F4xx_HAL_Driver/Src/stm32f4xx_hal_rcc.c ****                       ##### RCC specific features #####
  14:Drivers/STM32F4xx_HAL_Driver/Src/stm32f4xx_hal_rcc.c ****   ==============================================================================
  15:Drivers/STM32F4xx_HAL_Driver/Src/stm32f4xx_hal_rcc.c ****     [..]
  16:Drivers/STM32F4xx_HAL_Driver/Src/stm32f4xx_hal_rcc.c ****       After reset the device is running from Internal High Speed oscillator
  17:Drivers/STM32F4xx_HAL_Driver/Src/stm32f4xx_hal_rcc.c ****       (HSI 16MHz) with Flash 0 wait state, Flash prefetch buffer, D-Cache
  18:Drivers/STM32F4xx_HAL_Driver/Src/stm32f4xx_hal_rcc.c ****       and I-Cache are disabled, and all peripherals are off except internal
  19:Drivers/STM32F4xx_HAL_Driver/Src/stm32f4xx_hal_rcc.c ****       SRAM, Flash and JTAG.
  20:Drivers/STM32F4xx_HAL_Driver/Src/stm32f4xx_hal_rcc.c ****       (+) There is no prescaler on High speed (AHB) and Low speed (APB) busses;
  21:Drivers/STM32F4xx_HAL_Driver/Src/stm32f4xx_hal_rcc.c ****           all peripherals mapped on these busses are running at HSI speed.
  22:Drivers/STM32F4xx_HAL_Driver/Src/stm32f4xx_hal_rcc.c ****       (+) The clock for all peripherals is switched off, except the SRAM and FLASH.
  23:Drivers/STM32F4xx_HAL_Driver/Src/stm32f4xx_hal_rcc.c ****       (+) All GPIOs are in input floating state, except the JTAG pins which
  24:Drivers/STM32F4xx_HAL_Driver/Src/stm32f4xx_hal_rcc.c ****           are assigned to be used for debug purpose.
  25:Drivers/STM32F4xx_HAL_Driver/Src/stm32f4xx_hal_rcc.c **** 
  26:Drivers/STM32F4xx_HAL_Driver/Src/stm32f4xx_hal_rcc.c ****     [..]
  27:Drivers/STM32F4xx_HAL_Driver/Src/stm32f4xx_hal_rcc.c ****       Once the device started from reset, the user application has to:
  28:Drivers/STM32F4xx_HAL_Driver/Src/stm32f4xx_hal_rcc.c ****       (+) Configure the clock source to be used to drive the System clock
  29:Drivers/STM32F4xx_HAL_Driver/Src/stm32f4xx_hal_rcc.c ****           (if the application needs higher frequency/performance)
ARM GAS  /tmp/cc8pL1nJ.s 			page 2


  30:Drivers/STM32F4xx_HAL_Driver/Src/stm32f4xx_hal_rcc.c ****       (+) Configure the System clock frequency and Flash settings
  31:Drivers/STM32F4xx_HAL_Driver/Src/stm32f4xx_hal_rcc.c ****       (+) Configure the AHB and APB busses prescalers
  32:Drivers/STM32F4xx_HAL_Driver/Src/stm32f4xx_hal_rcc.c ****       (+) Enable the clock for the peripheral(s) to be used
  33:Drivers/STM32F4xx_HAL_Driver/Src/stm32f4xx_hal_rcc.c ****       (+) Configure the clock source(s) for peripherals which clocks are not
  34:Drivers/STM32F4xx_HAL_Driver/Src/stm32f4xx_hal_rcc.c ****           derived from the System clock (I2S, RTC, ADC, USB OTG FS/SDIO/RNG)
  35:Drivers/STM32F4xx_HAL_Driver/Src/stm32f4xx_hal_rcc.c **** 
  36:Drivers/STM32F4xx_HAL_Driver/Src/stm32f4xx_hal_rcc.c ****                       ##### RCC Limitations #####
  37:Drivers/STM32F4xx_HAL_Driver/Src/stm32f4xx_hal_rcc.c ****   ==============================================================================
  38:Drivers/STM32F4xx_HAL_Driver/Src/stm32f4xx_hal_rcc.c ****     [..]
  39:Drivers/STM32F4xx_HAL_Driver/Src/stm32f4xx_hal_rcc.c ****       A delay between an RCC peripheral clock enable and the effective peripheral
  40:Drivers/STM32F4xx_HAL_Driver/Src/stm32f4xx_hal_rcc.c ****       enabling should be taken into account in order to manage the peripheral read/write
  41:Drivers/STM32F4xx_HAL_Driver/Src/stm32f4xx_hal_rcc.c ****       from/to registers.
  42:Drivers/STM32F4xx_HAL_Driver/Src/stm32f4xx_hal_rcc.c ****       (+) This delay depends on the peripheral mapping.
  43:Drivers/STM32F4xx_HAL_Driver/Src/stm32f4xx_hal_rcc.c ****       (+) If peripheral is mapped on AHB: the delay is 2 AHB clock cycle
  44:Drivers/STM32F4xx_HAL_Driver/Src/stm32f4xx_hal_rcc.c ****           after the clock enable bit is set on the hardware register
  45:Drivers/STM32F4xx_HAL_Driver/Src/stm32f4xx_hal_rcc.c ****       (+) If peripheral is mapped on APB: the delay is 2 APB clock cycle
  46:Drivers/STM32F4xx_HAL_Driver/Src/stm32f4xx_hal_rcc.c ****           after the clock enable bit is set on the hardware register
  47:Drivers/STM32F4xx_HAL_Driver/Src/stm32f4xx_hal_rcc.c **** 
  48:Drivers/STM32F4xx_HAL_Driver/Src/stm32f4xx_hal_rcc.c ****     [..]
  49:Drivers/STM32F4xx_HAL_Driver/Src/stm32f4xx_hal_rcc.c ****       Implemented Workaround:
  50:Drivers/STM32F4xx_HAL_Driver/Src/stm32f4xx_hal_rcc.c ****       (+) For AHB & APB peripherals, a dummy read to the peripheral register has been
  51:Drivers/STM32F4xx_HAL_Driver/Src/stm32f4xx_hal_rcc.c ****           inserted in each __HAL_RCC_PPP_CLK_ENABLE() macro.
  52:Drivers/STM32F4xx_HAL_Driver/Src/stm32f4xx_hal_rcc.c **** 
  53:Drivers/STM32F4xx_HAL_Driver/Src/stm32f4xx_hal_rcc.c ****   @endverbatim
  54:Drivers/STM32F4xx_HAL_Driver/Src/stm32f4xx_hal_rcc.c ****   ******************************************************************************
  55:Drivers/STM32F4xx_HAL_Driver/Src/stm32f4xx_hal_rcc.c ****   * @attention
  56:Drivers/STM32F4xx_HAL_Driver/Src/stm32f4xx_hal_rcc.c ****   *
  57:Drivers/STM32F4xx_HAL_Driver/Src/stm32f4xx_hal_rcc.c ****   * <h2><center>&copy; COPYRIGHT(c) 2017 STMicroelectronics</center></h2>
  58:Drivers/STM32F4xx_HAL_Driver/Src/stm32f4xx_hal_rcc.c ****   *
  59:Drivers/STM32F4xx_HAL_Driver/Src/stm32f4xx_hal_rcc.c ****   * Redistribution and use in source and binary forms, with or without modification,
  60:Drivers/STM32F4xx_HAL_Driver/Src/stm32f4xx_hal_rcc.c ****   * are permitted provided that the following conditions are met:
  61:Drivers/STM32F4xx_HAL_Driver/Src/stm32f4xx_hal_rcc.c ****   *   1. Redistributions of source code must retain the above copyright notice,
  62:Drivers/STM32F4xx_HAL_Driver/Src/stm32f4xx_hal_rcc.c ****   *      this list of conditions and the following disclaimer.
  63:Drivers/STM32F4xx_HAL_Driver/Src/stm32f4xx_hal_rcc.c ****   *   2. Redistributions in binary form must reproduce the above copyright notice,
  64:Drivers/STM32F4xx_HAL_Driver/Src/stm32f4xx_hal_rcc.c ****   *      this list of conditions and the following disclaimer in the documentation
  65:Drivers/STM32F4xx_HAL_Driver/Src/stm32f4xx_hal_rcc.c ****   *      and/or other materials provided with the distribution.
  66:Drivers/STM32F4xx_HAL_Driver/Src/stm32f4xx_hal_rcc.c ****   *   3. Neither the name of STMicroelectronics nor the names of its contributors
  67:Drivers/STM32F4xx_HAL_Driver/Src/stm32f4xx_hal_rcc.c ****   *      may be used to endorse or promote products derived from this software
  68:Drivers/STM32F4xx_HAL_Driver/Src/stm32f4xx_hal_rcc.c ****   *      without specific prior written permission.
  69:Drivers/STM32F4xx_HAL_Driver/Src/stm32f4xx_hal_rcc.c ****   *
  70:Drivers/STM32F4xx_HAL_Driver/Src/stm32f4xx_hal_rcc.c ****   * THIS SOFTWARE IS PROVIDED BY THE COPYRIGHT HOLDERS AND CONTRIBUTORS "AS IS"
  71:Drivers/STM32F4xx_HAL_Driver/Src/stm32f4xx_hal_rcc.c ****   * AND ANY EXPRESS OR IMPLIED WARRANTIES, INCLUDING, BUT NOT LIMITED TO, THE
  72:Drivers/STM32F4xx_HAL_Driver/Src/stm32f4xx_hal_rcc.c ****   * IMPLIED WARRANTIES OF MERCHANTABILITY AND FITNESS FOR A PARTICULAR PURPOSE ARE
  73:Drivers/STM32F4xx_HAL_Driver/Src/stm32f4xx_hal_rcc.c ****   * DISCLAIMED. IN NO EVENT SHALL THE COPYRIGHT HOLDER OR CONTRIBUTORS BE LIABLE
  74:Drivers/STM32F4xx_HAL_Driver/Src/stm32f4xx_hal_rcc.c ****   * FOR ANY DIRECT, INDIRECT, INCIDENTAL, SPECIAL, EXEMPLARY, OR CONSEQUENTIAL
  75:Drivers/STM32F4xx_HAL_Driver/Src/stm32f4xx_hal_rcc.c ****   * DAMAGES (INCLUDING, BUT NOT LIMITED TO, PROCUREMENT OF SUBSTITUTE GOODS OR
  76:Drivers/STM32F4xx_HAL_Driver/Src/stm32f4xx_hal_rcc.c ****   * SERVICES; LOSS OF USE, DATA, OR PROFITS; OR BUSINESS INTERRUPTION) HOWEVER
  77:Drivers/STM32F4xx_HAL_Driver/Src/stm32f4xx_hal_rcc.c ****   * CAUSED AND ON ANY THEORY OF LIABILITY, WHETHER IN CONTRACT, STRICT LIABILITY,
  78:Drivers/STM32F4xx_HAL_Driver/Src/stm32f4xx_hal_rcc.c ****   * OR TORT (INCLUDING NEGLIGENCE OR OTHERWISE) ARISING IN ANY WAY OUT OF THE USE
  79:Drivers/STM32F4xx_HAL_Driver/Src/stm32f4xx_hal_rcc.c ****   * OF THIS SOFTWARE, EVEN IF ADVISED OF THE POSSIBILITY OF SUCH DAMAGE.
  80:Drivers/STM32F4xx_HAL_Driver/Src/stm32f4xx_hal_rcc.c ****   *
  81:Drivers/STM32F4xx_HAL_Driver/Src/stm32f4xx_hal_rcc.c ****   ******************************************************************************
  82:Drivers/STM32F4xx_HAL_Driver/Src/stm32f4xx_hal_rcc.c ****   */
  83:Drivers/STM32F4xx_HAL_Driver/Src/stm32f4xx_hal_rcc.c **** 
  84:Drivers/STM32F4xx_HAL_Driver/Src/stm32f4xx_hal_rcc.c **** /* Includes ------------------------------------------------------------------*/
  85:Drivers/STM32F4xx_HAL_Driver/Src/stm32f4xx_hal_rcc.c **** #include "stm32f4xx_hal.h"
  86:Drivers/STM32F4xx_HAL_Driver/Src/stm32f4xx_hal_rcc.c **** 
ARM GAS  /tmp/cc8pL1nJ.s 			page 3


  87:Drivers/STM32F4xx_HAL_Driver/Src/stm32f4xx_hal_rcc.c **** /** @addtogroup STM32F4xx_HAL_Driver
  88:Drivers/STM32F4xx_HAL_Driver/Src/stm32f4xx_hal_rcc.c ****   * @{
  89:Drivers/STM32F4xx_HAL_Driver/Src/stm32f4xx_hal_rcc.c ****   */
  90:Drivers/STM32F4xx_HAL_Driver/Src/stm32f4xx_hal_rcc.c **** 
  91:Drivers/STM32F4xx_HAL_Driver/Src/stm32f4xx_hal_rcc.c **** /** @defgroup RCC RCC
  92:Drivers/STM32F4xx_HAL_Driver/Src/stm32f4xx_hal_rcc.c ****   * @brief RCC HAL module driver
  93:Drivers/STM32F4xx_HAL_Driver/Src/stm32f4xx_hal_rcc.c ****   * @{
  94:Drivers/STM32F4xx_HAL_Driver/Src/stm32f4xx_hal_rcc.c ****   */
  95:Drivers/STM32F4xx_HAL_Driver/Src/stm32f4xx_hal_rcc.c **** 
  96:Drivers/STM32F4xx_HAL_Driver/Src/stm32f4xx_hal_rcc.c **** #ifdef HAL_RCC_MODULE_ENABLED
  97:Drivers/STM32F4xx_HAL_Driver/Src/stm32f4xx_hal_rcc.c **** 
  98:Drivers/STM32F4xx_HAL_Driver/Src/stm32f4xx_hal_rcc.c **** /* Private typedef -----------------------------------------------------------*/
  99:Drivers/STM32F4xx_HAL_Driver/Src/stm32f4xx_hal_rcc.c **** /* Private define ------------------------------------------------------------*/
 100:Drivers/STM32F4xx_HAL_Driver/Src/stm32f4xx_hal_rcc.c **** /** @addtogroup RCC_Private_Constants
 101:Drivers/STM32F4xx_HAL_Driver/Src/stm32f4xx_hal_rcc.c ****   * @{
 102:Drivers/STM32F4xx_HAL_Driver/Src/stm32f4xx_hal_rcc.c ****   */
 103:Drivers/STM32F4xx_HAL_Driver/Src/stm32f4xx_hal_rcc.c **** 
 104:Drivers/STM32F4xx_HAL_Driver/Src/stm32f4xx_hal_rcc.c **** /* Private macro -------------------------------------------------------------*/
 105:Drivers/STM32F4xx_HAL_Driver/Src/stm32f4xx_hal_rcc.c **** #define __MCO1_CLK_ENABLE()   __HAL_RCC_GPIOA_CLK_ENABLE()
 106:Drivers/STM32F4xx_HAL_Driver/Src/stm32f4xx_hal_rcc.c **** #define MCO1_GPIO_PORT        GPIOA
 107:Drivers/STM32F4xx_HAL_Driver/Src/stm32f4xx_hal_rcc.c **** #define MCO1_PIN              GPIO_PIN_8
 108:Drivers/STM32F4xx_HAL_Driver/Src/stm32f4xx_hal_rcc.c **** 
 109:Drivers/STM32F4xx_HAL_Driver/Src/stm32f4xx_hal_rcc.c **** #define __MCO2_CLK_ENABLE()   __HAL_RCC_GPIOC_CLK_ENABLE()
 110:Drivers/STM32F4xx_HAL_Driver/Src/stm32f4xx_hal_rcc.c **** #define MCO2_GPIO_PORT         GPIOC
 111:Drivers/STM32F4xx_HAL_Driver/Src/stm32f4xx_hal_rcc.c **** #define MCO2_PIN               GPIO_PIN_9
 112:Drivers/STM32F4xx_HAL_Driver/Src/stm32f4xx_hal_rcc.c **** /**
 113:Drivers/STM32F4xx_HAL_Driver/Src/stm32f4xx_hal_rcc.c ****   * @}
 114:Drivers/STM32F4xx_HAL_Driver/Src/stm32f4xx_hal_rcc.c ****   */
 115:Drivers/STM32F4xx_HAL_Driver/Src/stm32f4xx_hal_rcc.c **** 
 116:Drivers/STM32F4xx_HAL_Driver/Src/stm32f4xx_hal_rcc.c **** /* Private variables ---------------------------------------------------------*/
 117:Drivers/STM32F4xx_HAL_Driver/Src/stm32f4xx_hal_rcc.c **** /** @defgroup RCC_Private_Variables RCC Private Variables
 118:Drivers/STM32F4xx_HAL_Driver/Src/stm32f4xx_hal_rcc.c ****   * @{
 119:Drivers/STM32F4xx_HAL_Driver/Src/stm32f4xx_hal_rcc.c ****   */
 120:Drivers/STM32F4xx_HAL_Driver/Src/stm32f4xx_hal_rcc.c **** /**
 121:Drivers/STM32F4xx_HAL_Driver/Src/stm32f4xx_hal_rcc.c ****   * @}
 122:Drivers/STM32F4xx_HAL_Driver/Src/stm32f4xx_hal_rcc.c ****   */
 123:Drivers/STM32F4xx_HAL_Driver/Src/stm32f4xx_hal_rcc.c **** /* Private function prototypes -----------------------------------------------*/
 124:Drivers/STM32F4xx_HAL_Driver/Src/stm32f4xx_hal_rcc.c **** /* Private functions ---------------------------------------------------------*/
 125:Drivers/STM32F4xx_HAL_Driver/Src/stm32f4xx_hal_rcc.c **** 
 126:Drivers/STM32F4xx_HAL_Driver/Src/stm32f4xx_hal_rcc.c **** /** @defgroup RCC_Exported_Functions RCC Exported Functions
 127:Drivers/STM32F4xx_HAL_Driver/Src/stm32f4xx_hal_rcc.c ****   *  @{
 128:Drivers/STM32F4xx_HAL_Driver/Src/stm32f4xx_hal_rcc.c ****   */
 129:Drivers/STM32F4xx_HAL_Driver/Src/stm32f4xx_hal_rcc.c **** 
 130:Drivers/STM32F4xx_HAL_Driver/Src/stm32f4xx_hal_rcc.c **** /** @defgroup RCC_Exported_Functions_Group1 Initialization and de-initialization functions
 131:Drivers/STM32F4xx_HAL_Driver/Src/stm32f4xx_hal_rcc.c ****  *  @brief    Initialization and Configuration functions
 132:Drivers/STM32F4xx_HAL_Driver/Src/stm32f4xx_hal_rcc.c ****  *
 133:Drivers/STM32F4xx_HAL_Driver/Src/stm32f4xx_hal_rcc.c **** @verbatim
 134:Drivers/STM32F4xx_HAL_Driver/Src/stm32f4xx_hal_rcc.c ****  ===============================================================================
 135:Drivers/STM32F4xx_HAL_Driver/Src/stm32f4xx_hal_rcc.c ****            ##### Initialization and de-initialization functions #####
 136:Drivers/STM32F4xx_HAL_Driver/Src/stm32f4xx_hal_rcc.c ****  ===============================================================================
 137:Drivers/STM32F4xx_HAL_Driver/Src/stm32f4xx_hal_rcc.c ****     [..]
 138:Drivers/STM32F4xx_HAL_Driver/Src/stm32f4xx_hal_rcc.c ****       This section provides functions allowing to configure the internal/external oscillators
 139:Drivers/STM32F4xx_HAL_Driver/Src/stm32f4xx_hal_rcc.c ****       (HSE, HSI, LSE, LSI, PLL, CSS and MCO) and the System busses clocks (SYSCLK, AHB, APB1
 140:Drivers/STM32F4xx_HAL_Driver/Src/stm32f4xx_hal_rcc.c ****        and APB2).
 141:Drivers/STM32F4xx_HAL_Driver/Src/stm32f4xx_hal_rcc.c **** 
 142:Drivers/STM32F4xx_HAL_Driver/Src/stm32f4xx_hal_rcc.c ****     [..] Internal/external clock and PLL configuration
 143:Drivers/STM32F4xx_HAL_Driver/Src/stm32f4xx_hal_rcc.c ****          (#) HSI (high-speed internal), 16 MHz factory-trimmed RC used directly or through
ARM GAS  /tmp/cc8pL1nJ.s 			page 4


 144:Drivers/STM32F4xx_HAL_Driver/Src/stm32f4xx_hal_rcc.c ****              the PLL as System clock source.
 145:Drivers/STM32F4xx_HAL_Driver/Src/stm32f4xx_hal_rcc.c **** 
 146:Drivers/STM32F4xx_HAL_Driver/Src/stm32f4xx_hal_rcc.c ****          (#) LSI (low-speed internal), 32 KHz low consumption RC used as IWDG and/or RTC
 147:Drivers/STM32F4xx_HAL_Driver/Src/stm32f4xx_hal_rcc.c ****              clock source.
 148:Drivers/STM32F4xx_HAL_Driver/Src/stm32f4xx_hal_rcc.c **** 
 149:Drivers/STM32F4xx_HAL_Driver/Src/stm32f4xx_hal_rcc.c ****          (#) HSE (high-speed external), 4 to 26 MHz crystal oscillator used directly or
 150:Drivers/STM32F4xx_HAL_Driver/Src/stm32f4xx_hal_rcc.c ****              through the PLL as System clock source. Can be used also as RTC clock source.
 151:Drivers/STM32F4xx_HAL_Driver/Src/stm32f4xx_hal_rcc.c **** 
 152:Drivers/STM32F4xx_HAL_Driver/Src/stm32f4xx_hal_rcc.c ****          (#) LSE (low-speed external), 32 KHz oscillator used as RTC clock source.
 153:Drivers/STM32F4xx_HAL_Driver/Src/stm32f4xx_hal_rcc.c **** 
 154:Drivers/STM32F4xx_HAL_Driver/Src/stm32f4xx_hal_rcc.c ****          (#) PLL (clocked by HSI or HSE), featuring two different output clocks:
 155:Drivers/STM32F4xx_HAL_Driver/Src/stm32f4xx_hal_rcc.c ****            (++) The first output is used to generate the high speed system clock (up to 168 MHz)
 156:Drivers/STM32F4xx_HAL_Driver/Src/stm32f4xx_hal_rcc.c ****            (++) The second output is used to generate the clock for the USB OTG FS (48 MHz),
 157:Drivers/STM32F4xx_HAL_Driver/Src/stm32f4xx_hal_rcc.c ****                 the random analog generator (<=48 MHz) and the SDIO (<= 48 MHz).
 158:Drivers/STM32F4xx_HAL_Driver/Src/stm32f4xx_hal_rcc.c **** 
 159:Drivers/STM32F4xx_HAL_Driver/Src/stm32f4xx_hal_rcc.c ****          (#) CSS (Clock security system), once enable using the macro __HAL_RCC_CSS_ENABLE()
 160:Drivers/STM32F4xx_HAL_Driver/Src/stm32f4xx_hal_rcc.c ****              and if a HSE clock failure occurs(HSE used directly or through PLL as System
 161:Drivers/STM32F4xx_HAL_Driver/Src/stm32f4xx_hal_rcc.c ****              clock source), the System clocks automatically switched to HSI and an interrupt
 162:Drivers/STM32F4xx_HAL_Driver/Src/stm32f4xx_hal_rcc.c ****              is generated if enabled. The interrupt is linked to the Cortex-M4 NMI
 163:Drivers/STM32F4xx_HAL_Driver/Src/stm32f4xx_hal_rcc.c ****              (Non-Maskable Interrupt) exception vector.
 164:Drivers/STM32F4xx_HAL_Driver/Src/stm32f4xx_hal_rcc.c **** 
 165:Drivers/STM32F4xx_HAL_Driver/Src/stm32f4xx_hal_rcc.c ****          (#) MCO1 (microcontroller clock output), used to output HSI, LSE, HSE or PLL
 166:Drivers/STM32F4xx_HAL_Driver/Src/stm32f4xx_hal_rcc.c ****              clock (through a configurable prescaler) on PA8 pin.
 167:Drivers/STM32F4xx_HAL_Driver/Src/stm32f4xx_hal_rcc.c **** 
 168:Drivers/STM32F4xx_HAL_Driver/Src/stm32f4xx_hal_rcc.c ****          (#) MCO2 (microcontroller clock output), used to output HSE, PLL, SYSCLK or PLLI2S
 169:Drivers/STM32F4xx_HAL_Driver/Src/stm32f4xx_hal_rcc.c ****              clock (through a configurable prescaler) on PC9 pin.
 170:Drivers/STM32F4xx_HAL_Driver/Src/stm32f4xx_hal_rcc.c **** 
 171:Drivers/STM32F4xx_HAL_Driver/Src/stm32f4xx_hal_rcc.c ****     [..] System, AHB and APB busses clocks configuration
 172:Drivers/STM32F4xx_HAL_Driver/Src/stm32f4xx_hal_rcc.c ****          (#) Several clock sources can be used to drive the System clock (SYSCLK): HSI,
 173:Drivers/STM32F4xx_HAL_Driver/Src/stm32f4xx_hal_rcc.c ****              HSE and PLL.
 174:Drivers/STM32F4xx_HAL_Driver/Src/stm32f4xx_hal_rcc.c ****              The AHB clock (HCLK) is derived from System clock through configurable
 175:Drivers/STM32F4xx_HAL_Driver/Src/stm32f4xx_hal_rcc.c ****              prescaler and used to clock the CPU, memory and peripherals mapped
 176:Drivers/STM32F4xx_HAL_Driver/Src/stm32f4xx_hal_rcc.c ****              on AHB bus (DMA, GPIO...). APB1 (PCLK1) and APB2 (PCLK2) clocks are derived
 177:Drivers/STM32F4xx_HAL_Driver/Src/stm32f4xx_hal_rcc.c ****              from AHB clock through configurable prescalers and used to clock
 178:Drivers/STM32F4xx_HAL_Driver/Src/stm32f4xx_hal_rcc.c ****              the peripherals mapped on these busses. You can use
 179:Drivers/STM32F4xx_HAL_Driver/Src/stm32f4xx_hal_rcc.c ****              "HAL_RCC_GetSysClockFreq()" function to retrieve the frequencies of these clocks.
 180:Drivers/STM32F4xx_HAL_Driver/Src/stm32f4xx_hal_rcc.c **** 
 181:Drivers/STM32F4xx_HAL_Driver/Src/stm32f4xx_hal_rcc.c ****          (#) For the STM32F405xx/07xx and STM32F415xx/17xx devices, the maximum
 182:Drivers/STM32F4xx_HAL_Driver/Src/stm32f4xx_hal_rcc.c ****              frequency of the SYSCLK and HCLK is 168 MHz, PCLK2 84 MHz and PCLK1 42 MHz.
 183:Drivers/STM32F4xx_HAL_Driver/Src/stm32f4xx_hal_rcc.c ****              Depending on the device voltage range, the maximum frequency should
 184:Drivers/STM32F4xx_HAL_Driver/Src/stm32f4xx_hal_rcc.c ****              be adapted accordingly (refer to the product datasheets for more details).
 185:Drivers/STM32F4xx_HAL_Driver/Src/stm32f4xx_hal_rcc.c **** 
 186:Drivers/STM32F4xx_HAL_Driver/Src/stm32f4xx_hal_rcc.c ****          (#) For the STM32F42xxx, STM32F43xxx, STM32F446xx, STM32F469xx and STM32F479xx devices,
 187:Drivers/STM32F4xx_HAL_Driver/Src/stm32f4xx_hal_rcc.c ****              the maximum frequency of the SYSCLK and HCLK is 180 MHz, PCLK2 90 MHz and PCLK1 45 MHz
 188:Drivers/STM32F4xx_HAL_Driver/Src/stm32f4xx_hal_rcc.c ****              Depending on the device voltage range, the maximum frequency should
 189:Drivers/STM32F4xx_HAL_Driver/Src/stm32f4xx_hal_rcc.c ****              be adapted accordingly (refer to the product datasheets for more details).
 190:Drivers/STM32F4xx_HAL_Driver/Src/stm32f4xx_hal_rcc.c **** 
 191:Drivers/STM32F4xx_HAL_Driver/Src/stm32f4xx_hal_rcc.c ****          (#) For the STM32F401xx, the maximum frequency of the SYSCLK and HCLK is 84 MHz,
 192:Drivers/STM32F4xx_HAL_Driver/Src/stm32f4xx_hal_rcc.c ****              PCLK2 84 MHz and PCLK1 42 MHz.
 193:Drivers/STM32F4xx_HAL_Driver/Src/stm32f4xx_hal_rcc.c ****              Depending on the device voltage range, the maximum frequency should
 194:Drivers/STM32F4xx_HAL_Driver/Src/stm32f4xx_hal_rcc.c ****              be adapted accordingly (refer to the product datasheets for more details).
 195:Drivers/STM32F4xx_HAL_Driver/Src/stm32f4xx_hal_rcc.c **** 
 196:Drivers/STM32F4xx_HAL_Driver/Src/stm32f4xx_hal_rcc.c ****          (#) For the STM32F41xxx, the maximum frequency of the SYSCLK and HCLK is 100 MHz,
 197:Drivers/STM32F4xx_HAL_Driver/Src/stm32f4xx_hal_rcc.c ****              PCLK2 100 MHz and PCLK1 50 MHz.
 198:Drivers/STM32F4xx_HAL_Driver/Src/stm32f4xx_hal_rcc.c ****              Depending on the device voltage range, the maximum frequency should
 199:Drivers/STM32F4xx_HAL_Driver/Src/stm32f4xx_hal_rcc.c ****              be adapted accordingly (refer to the product datasheets for more details).
 200:Drivers/STM32F4xx_HAL_Driver/Src/stm32f4xx_hal_rcc.c **** 
ARM GAS  /tmp/cc8pL1nJ.s 			page 5


 201:Drivers/STM32F4xx_HAL_Driver/Src/stm32f4xx_hal_rcc.c **** @endverbatim
 202:Drivers/STM32F4xx_HAL_Driver/Src/stm32f4xx_hal_rcc.c ****   * @{
 203:Drivers/STM32F4xx_HAL_Driver/Src/stm32f4xx_hal_rcc.c ****   */
 204:Drivers/STM32F4xx_HAL_Driver/Src/stm32f4xx_hal_rcc.c **** 
 205:Drivers/STM32F4xx_HAL_Driver/Src/stm32f4xx_hal_rcc.c **** /**
 206:Drivers/STM32F4xx_HAL_Driver/Src/stm32f4xx_hal_rcc.c ****   * @brief  Resets the RCC clock configuration to the default reset state.
 207:Drivers/STM32F4xx_HAL_Driver/Src/stm32f4xx_hal_rcc.c ****   * @note   The default reset state of the clock configuration is given below:
 208:Drivers/STM32F4xx_HAL_Driver/Src/stm32f4xx_hal_rcc.c ****   *            - HSI ON and used as system clock source
 209:Drivers/STM32F4xx_HAL_Driver/Src/stm32f4xx_hal_rcc.c ****   *            - HSE and PLL OFF
 210:Drivers/STM32F4xx_HAL_Driver/Src/stm32f4xx_hal_rcc.c ****   *            - AHB, APB1 and APB2 prescaler set to 1.
 211:Drivers/STM32F4xx_HAL_Driver/Src/stm32f4xx_hal_rcc.c ****   *            - CSS, MCO1 and MCO2 OFF
 212:Drivers/STM32F4xx_HAL_Driver/Src/stm32f4xx_hal_rcc.c ****   *            - All interrupts disabled
 213:Drivers/STM32F4xx_HAL_Driver/Src/stm32f4xx_hal_rcc.c ****   * @note   This function doesn't modify the configuration of the
 214:Drivers/STM32F4xx_HAL_Driver/Src/stm32f4xx_hal_rcc.c ****   *            - Peripheral clocks
 215:Drivers/STM32F4xx_HAL_Driver/Src/stm32f4xx_hal_rcc.c ****   *            - LSI, LSE and RTC clocks
 216:Drivers/STM32F4xx_HAL_Driver/Src/stm32f4xx_hal_rcc.c ****   * @retval HAL status
 217:Drivers/STM32F4xx_HAL_Driver/Src/stm32f4xx_hal_rcc.c ****   */
 218:Drivers/STM32F4xx_HAL_Driver/Src/stm32f4xx_hal_rcc.c **** __weak HAL_StatusTypeDef HAL_RCC_DeInit(void)
 219:Drivers/STM32F4xx_HAL_Driver/Src/stm32f4xx_hal_rcc.c **** {
  30              		.loc 1 219 1 view -0
  31              		.cfi_startproc
  32              		@ args = 0, pretend = 0, frame = 0
  33              		@ frame_needed = 0, uses_anonymous_args = 0
  34              		@ link register save eliminated.
 220:Drivers/STM32F4xx_HAL_Driver/Src/stm32f4xx_hal_rcc.c ****   return HAL_OK;
  35              		.loc 1 220 3 view .LVU1
 221:Drivers/STM32F4xx_HAL_Driver/Src/stm32f4xx_hal_rcc.c **** }
  36              		.loc 1 221 1 is_stmt 0 view .LVU2
  37 0000 0020     		movs	r0, #0
  38 0002 7047     		bx	lr
  39              		.cfi_endproc
  40              	.LFE126:
  42              		.section	.text.HAL_RCC_OscConfig,"ax",%progbits
  43              		.align	1
  44              		.p2align 2,,3
  45              		.weak	HAL_RCC_OscConfig
  46              		.syntax unified
  47              		.thumb
  48              		.thumb_func
  49              		.fpu fpv4-sp-d16
  51              	HAL_RCC_OscConfig:
  52              	.LVL0:
  53              	.LFB127:
 222:Drivers/STM32F4xx_HAL_Driver/Src/stm32f4xx_hal_rcc.c **** 
 223:Drivers/STM32F4xx_HAL_Driver/Src/stm32f4xx_hal_rcc.c **** /**
 224:Drivers/STM32F4xx_HAL_Driver/Src/stm32f4xx_hal_rcc.c ****   * @brief  Initializes the RCC Oscillators according to the specified parameters in the
 225:Drivers/STM32F4xx_HAL_Driver/Src/stm32f4xx_hal_rcc.c ****   *         RCC_OscInitTypeDef.
 226:Drivers/STM32F4xx_HAL_Driver/Src/stm32f4xx_hal_rcc.c ****   * @param  RCC_OscInitStruct pointer to an RCC_OscInitTypeDef structure that
 227:Drivers/STM32F4xx_HAL_Driver/Src/stm32f4xx_hal_rcc.c ****   *         contains the configuration information for the RCC Oscillators.
 228:Drivers/STM32F4xx_HAL_Driver/Src/stm32f4xx_hal_rcc.c ****   * @note   The PLL is not disabled when used as system clock.
 229:Drivers/STM32F4xx_HAL_Driver/Src/stm32f4xx_hal_rcc.c ****   * @note   Transitions LSE Bypass to LSE On and LSE On to LSE Bypass are not
 230:Drivers/STM32F4xx_HAL_Driver/Src/stm32f4xx_hal_rcc.c ****   *         supported by this API. User should request a transition to LSE Off
 231:Drivers/STM32F4xx_HAL_Driver/Src/stm32f4xx_hal_rcc.c ****   *         first and then LSE On or LSE Bypass.
 232:Drivers/STM32F4xx_HAL_Driver/Src/stm32f4xx_hal_rcc.c ****   * @note   Transition HSE Bypass to HSE On and HSE On to HSE Bypass are not
 233:Drivers/STM32F4xx_HAL_Driver/Src/stm32f4xx_hal_rcc.c ****   *         supported by this API. User should request a transition to HSE Off
 234:Drivers/STM32F4xx_HAL_Driver/Src/stm32f4xx_hal_rcc.c ****   *         first and then HSE On or HSE Bypass.
 235:Drivers/STM32F4xx_HAL_Driver/Src/stm32f4xx_hal_rcc.c ****   * @retval HAL status
ARM GAS  /tmp/cc8pL1nJ.s 			page 6


 236:Drivers/STM32F4xx_HAL_Driver/Src/stm32f4xx_hal_rcc.c ****   */
 237:Drivers/STM32F4xx_HAL_Driver/Src/stm32f4xx_hal_rcc.c **** __weak HAL_StatusTypeDef HAL_RCC_OscConfig(RCC_OscInitTypeDef  *RCC_OscInitStruct)
 238:Drivers/STM32F4xx_HAL_Driver/Src/stm32f4xx_hal_rcc.c **** {
  54              		.loc 1 238 1 is_stmt 1 view -0
  55              		.cfi_startproc
  56              		@ args = 0, pretend = 0, frame = 8
  57              		@ frame_needed = 0, uses_anonymous_args = 0
 239:Drivers/STM32F4xx_HAL_Driver/Src/stm32f4xx_hal_rcc.c ****   uint32_t tickstart;
  58              		.loc 1 239 3 view .LVU4
 240:Drivers/STM32F4xx_HAL_Driver/Src/stm32f4xx_hal_rcc.c **** 
 241:Drivers/STM32F4xx_HAL_Driver/Src/stm32f4xx_hal_rcc.c ****   /* Check Null pointer */
 242:Drivers/STM32F4xx_HAL_Driver/Src/stm32f4xx_hal_rcc.c ****   if(RCC_OscInitStruct == NULL)
  59              		.loc 1 242 3 view .LVU5
  60              		.loc 1 242 5 is_stmt 0 view .LVU6
  61 0000 0028     		cmp	r0, #0
  62 0002 00F06D81 		beq	.L102
 243:Drivers/STM32F4xx_HAL_Driver/Src/stm32f4xx_hal_rcc.c ****   {
 244:Drivers/STM32F4xx_HAL_Driver/Src/stm32f4xx_hal_rcc.c ****     return HAL_ERROR;
 245:Drivers/STM32F4xx_HAL_Driver/Src/stm32f4xx_hal_rcc.c ****   }
 246:Drivers/STM32F4xx_HAL_Driver/Src/stm32f4xx_hal_rcc.c **** 
 247:Drivers/STM32F4xx_HAL_Driver/Src/stm32f4xx_hal_rcc.c ****   /* Check the parameters */
 248:Drivers/STM32F4xx_HAL_Driver/Src/stm32f4xx_hal_rcc.c ****   assert_param(IS_RCC_OSCILLATORTYPE(RCC_OscInitStruct->OscillatorType));
  63              		.loc 1 248 3 is_stmt 1 view .LVU7
 249:Drivers/STM32F4xx_HAL_Driver/Src/stm32f4xx_hal_rcc.c ****   /*------------------------------- HSE Configuration ------------------------*/
 250:Drivers/STM32F4xx_HAL_Driver/Src/stm32f4xx_hal_rcc.c ****   if(((RCC_OscInitStruct->OscillatorType) & RCC_OSCILLATORTYPE_HSE) == RCC_OSCILLATORTYPE_HSE)
  64              		.loc 1 250 3 view .LVU8
 238:Drivers/STM32F4xx_HAL_Driver/Src/stm32f4xx_hal_rcc.c ****   uint32_t tickstart;
  65              		.loc 1 238 1 is_stmt 0 view .LVU9
  66 0006 2DE9F041 		push	{r4, r5, r6, r7, r8, lr}
  67              	.LCFI0:
  68              		.cfi_def_cfa_offset 24
  69              		.cfi_offset 4, -24
  70              		.cfi_offset 5, -20
  71              		.cfi_offset 6, -16
  72              		.cfi_offset 7, -12
  73              		.cfi_offset 8, -8
  74              		.cfi_offset 14, -4
  75              		.loc 1 250 25 view .LVU10
  76 000a 0368     		ldr	r3, [r0]
  77              		.loc 1 250 5 view .LVU11
  78 000c DD07     		lsls	r5, r3, #31
 238:Drivers/STM32F4xx_HAL_Driver/Src/stm32f4xx_hal_rcc.c ****   uint32_t tickstart;
  79              		.loc 1 238 1 view .LVU12
  80 000e 82B0     		sub	sp, sp, #8
  81              	.LCFI1:
  82              		.cfi_def_cfa_offset 32
  83 0010 0446     		mov	r4, r0
  84              		.loc 1 250 5 view .LVU13
  85 0012 2FD5     		bpl	.L6
 251:Drivers/STM32F4xx_HAL_Driver/Src/stm32f4xx_hal_rcc.c ****   {
 252:Drivers/STM32F4xx_HAL_Driver/Src/stm32f4xx_hal_rcc.c ****     /* Check the parameters */
 253:Drivers/STM32F4xx_HAL_Driver/Src/stm32f4xx_hal_rcc.c ****     assert_param(IS_RCC_HSE(RCC_OscInitStruct->HSEState));
  86              		.loc 1 253 5 is_stmt 1 view .LVU14
 254:Drivers/STM32F4xx_HAL_Driver/Src/stm32f4xx_hal_rcc.c ****     /* When the HSE is used as system clock or clock source for PLL in these cases HSE will not dis
 255:Drivers/STM32F4xx_HAL_Driver/Src/stm32f4xx_hal_rcc.c ****     if((__HAL_RCC_GET_SYSCLK_SOURCE() == RCC_CFGR_SWS_HSE) ||\
  87              		.loc 1 255 5 view .LVU15
  88              		.loc 1 255 9 is_stmt 0 view .LVU16
ARM GAS  /tmp/cc8pL1nJ.s 			page 7


  89 0014 AD49     		ldr	r1, .L112
  90 0016 8A68     		ldr	r2, [r1, #8]
  91 0018 02F00C02 		and	r2, r2, #12
  92              		.loc 1 255 7 view .LVU17
  93 001c 042A     		cmp	r2, #4
  94 001e 00F0ED80 		beq	.L7
 256:Drivers/STM32F4xx_HAL_Driver/Src/stm32f4xx_hal_rcc.c ****       ((__HAL_RCC_GET_SYSCLK_SOURCE() == RCC_CFGR_SWS_PLL) && ((RCC->PLLCFGR & RCC_PLLCFGR_PLLSRC) 
  95              		.loc 1 256 9 discriminator 1 view .LVU18
  96 0022 8A68     		ldr	r2, [r1, #8]
  97 0024 02F00C02 		and	r2, r2, #12
 255:Drivers/STM32F4xx_HAL_Driver/Src/stm32f4xx_hal_rcc.c ****       ((__HAL_RCC_GET_SYSCLK_SOURCE() == RCC_CFGR_SWS_PLL) && ((RCC->PLLCFGR & RCC_PLLCFGR_PLLSRC) 
  98              		.loc 1 255 60 discriminator 1 view .LVU19
  99 0028 082A     		cmp	r2, #8
 100 002a 00F0E380 		beq	.L103
 101              	.LVL1:
 102              	.L8:
 257:Drivers/STM32F4xx_HAL_Driver/Src/stm32f4xx_hal_rcc.c ****     {
 258:Drivers/STM32F4xx_HAL_Driver/Src/stm32f4xx_hal_rcc.c ****       if((__HAL_RCC_GET_FLAG(RCC_FLAG_HSERDY) != RESET) && (RCC_OscInitStruct->HSEState == RCC_HSE_
 259:Drivers/STM32F4xx_HAL_Driver/Src/stm32f4xx_hal_rcc.c ****       {
 260:Drivers/STM32F4xx_HAL_Driver/Src/stm32f4xx_hal_rcc.c ****         return HAL_ERROR;
 261:Drivers/STM32F4xx_HAL_Driver/Src/stm32f4xx_hal_rcc.c ****       }
 262:Drivers/STM32F4xx_HAL_Driver/Src/stm32f4xx_hal_rcc.c ****     }
 263:Drivers/STM32F4xx_HAL_Driver/Src/stm32f4xx_hal_rcc.c ****     else
 264:Drivers/STM32F4xx_HAL_Driver/Src/stm32f4xx_hal_rcc.c ****     {
 265:Drivers/STM32F4xx_HAL_Driver/Src/stm32f4xx_hal_rcc.c ****       /* Set the new HSE configuration ---------------------------------------*/
 266:Drivers/STM32F4xx_HAL_Driver/Src/stm32f4xx_hal_rcc.c ****       __HAL_RCC_HSE_CONFIG(RCC_OscInitStruct->HSEState);
 103              		.loc 1 266 7 is_stmt 1 view .LVU20
 104              		.loc 1 266 7 view .LVU21
 105 002e 6368     		ldr	r3, [r4, #4]
 106 0030 B3F5803F 		cmp	r3, #65536
 107 0034 00F0EC80 		beq	.L104
 108              		.loc 1 266 7 discriminator 2 view .LVU22
 109 0038 B3F5A02F 		cmp	r3, #327680
 110 003c 00F05281 		beq	.L105
 111              		.loc 1 266 7 discriminator 4 view .LVU23
 112 0040 A24D     		ldr	r5, .L112
 113 0042 2A68     		ldr	r2, [r5]
 114 0044 22F48032 		bic	r2, r2, #65536
 115 0048 2A60     		str	r2, [r5]
 116              		.loc 1 266 7 discriminator 4 view .LVU24
 117 004a 2A68     		ldr	r2, [r5]
 118 004c 22F48022 		bic	r2, r2, #262144
 119 0050 2A60     		str	r2, [r5]
 267:Drivers/STM32F4xx_HAL_Driver/Src/stm32f4xx_hal_rcc.c **** 
 268:Drivers/STM32F4xx_HAL_Driver/Src/stm32f4xx_hal_rcc.c ****       /* Check the HSE State */
 269:Drivers/STM32F4xx_HAL_Driver/Src/stm32f4xx_hal_rcc.c ****       if((RCC_OscInitStruct->HSEState) != RCC_HSE_OFF)
 120              		.loc 1 269 7 discriminator 4 view .LVU25
 121              		.loc 1 269 9 is_stmt 0 discriminator 4 view .LVU26
 122 0052 002B     		cmp	r3, #0
 123 0054 40F0E180 		bne	.L11
 270:Drivers/STM32F4xx_HAL_Driver/Src/stm32f4xx_hal_rcc.c ****       {
 271:Drivers/STM32F4xx_HAL_Driver/Src/stm32f4xx_hal_rcc.c ****         /* Get Start Tick */
 272:Drivers/STM32F4xx_HAL_Driver/Src/stm32f4xx_hal_rcc.c ****         tickstart = HAL_GetTick();
 273:Drivers/STM32F4xx_HAL_Driver/Src/stm32f4xx_hal_rcc.c **** 
 274:Drivers/STM32F4xx_HAL_Driver/Src/stm32f4xx_hal_rcc.c ****         /* Wait till HSE is ready */
 275:Drivers/STM32F4xx_HAL_Driver/Src/stm32f4xx_hal_rcc.c ****         while(__HAL_RCC_GET_FLAG(RCC_FLAG_HSERDY) == RESET)
 276:Drivers/STM32F4xx_HAL_Driver/Src/stm32f4xx_hal_rcc.c ****         {
ARM GAS  /tmp/cc8pL1nJ.s 			page 8


 277:Drivers/STM32F4xx_HAL_Driver/Src/stm32f4xx_hal_rcc.c ****           if((HAL_GetTick() - tickstart ) > HSE_TIMEOUT_VALUE)
 278:Drivers/STM32F4xx_HAL_Driver/Src/stm32f4xx_hal_rcc.c ****           {
 279:Drivers/STM32F4xx_HAL_Driver/Src/stm32f4xx_hal_rcc.c ****             return HAL_TIMEOUT;
 280:Drivers/STM32F4xx_HAL_Driver/Src/stm32f4xx_hal_rcc.c ****           }
 281:Drivers/STM32F4xx_HAL_Driver/Src/stm32f4xx_hal_rcc.c ****         }
 282:Drivers/STM32F4xx_HAL_Driver/Src/stm32f4xx_hal_rcc.c ****       }
 283:Drivers/STM32F4xx_HAL_Driver/Src/stm32f4xx_hal_rcc.c ****       else
 284:Drivers/STM32F4xx_HAL_Driver/Src/stm32f4xx_hal_rcc.c ****       {
 285:Drivers/STM32F4xx_HAL_Driver/Src/stm32f4xx_hal_rcc.c ****         /* Get Start Tick */
 286:Drivers/STM32F4xx_HAL_Driver/Src/stm32f4xx_hal_rcc.c ****         tickstart = HAL_GetTick();
 124              		.loc 1 286 9 is_stmt 1 view .LVU27
 125              		.loc 1 286 21 is_stmt 0 view .LVU28
 126 0058 FFF7FEFF 		bl	HAL_GetTick
 127              	.LVL2:
 128 005c 0646     		mov	r6, r0
 129              	.LVL3:
 287:Drivers/STM32F4xx_HAL_Driver/Src/stm32f4xx_hal_rcc.c **** 
 288:Drivers/STM32F4xx_HAL_Driver/Src/stm32f4xx_hal_rcc.c ****         /* Wait till HSE is bypassed or disabled */
 289:Drivers/STM32F4xx_HAL_Driver/Src/stm32f4xx_hal_rcc.c ****         while(__HAL_RCC_GET_FLAG(RCC_FLAG_HSERDY) != RESET)
 130              		.loc 1 289 9 is_stmt 1 view .LVU29
 131              		.loc 1 289 14 is_stmt 0 view .LVU30
 132 005e 05E0     		b	.L16
 133              	.LVL4:
 134              	.L18:
 290:Drivers/STM32F4xx_HAL_Driver/Src/stm32f4xx_hal_rcc.c ****         {
 291:Drivers/STM32F4xx_HAL_Driver/Src/stm32f4xx_hal_rcc.c ****           if((HAL_GetTick() - tickstart ) > HSE_TIMEOUT_VALUE)
 135              		.loc 1 291 15 view .LVU31
 136 0060 FFF7FEFF 		bl	HAL_GetTick
 137              	.LVL5:
 138              		.loc 1 291 29 view .LVU32
 139 0064 801B     		subs	r0, r0, r6
 140              		.loc 1 291 13 view .LVU33
 141 0066 6428     		cmp	r0, #100
 142 0068 00F20181 		bhi	.L17
 143              	.L16:
 144              		.loc 1 291 11 is_stmt 1 view .LVU34
 289:Drivers/STM32F4xx_HAL_Driver/Src/stm32f4xx_hal_rcc.c ****         {
 145              		.loc 1 289 15 is_stmt 0 view .LVU35
 146 006c 2B68     		ldr	r3, [r5]
 289:Drivers/STM32F4xx_HAL_Driver/Src/stm32f4xx_hal_rcc.c ****         {
 147              		.loc 1 289 14 view .LVU36
 148 006e 9B03     		lsls	r3, r3, #14
 149 0070 F6D4     		bmi	.L18
 150              	.L100:
 289:Drivers/STM32F4xx_HAL_Driver/Src/stm32f4xx_hal_rcc.c ****         {
 151              		.loc 1 289 14 view .LVU37
 152 0072 2368     		ldr	r3, [r4]
 153              	.LVL6:
 154              	.L6:
 292:Drivers/STM32F4xx_HAL_Driver/Src/stm32f4xx_hal_rcc.c ****           {
 293:Drivers/STM32F4xx_HAL_Driver/Src/stm32f4xx_hal_rcc.c ****             return HAL_TIMEOUT;
 294:Drivers/STM32F4xx_HAL_Driver/Src/stm32f4xx_hal_rcc.c ****           }
 295:Drivers/STM32F4xx_HAL_Driver/Src/stm32f4xx_hal_rcc.c ****         }
 296:Drivers/STM32F4xx_HAL_Driver/Src/stm32f4xx_hal_rcc.c ****       }
 297:Drivers/STM32F4xx_HAL_Driver/Src/stm32f4xx_hal_rcc.c ****     }
 298:Drivers/STM32F4xx_HAL_Driver/Src/stm32f4xx_hal_rcc.c ****   }
 299:Drivers/STM32F4xx_HAL_Driver/Src/stm32f4xx_hal_rcc.c ****   /*----------------------------- HSI Configuration --------------------------*/
ARM GAS  /tmp/cc8pL1nJ.s 			page 9


 300:Drivers/STM32F4xx_HAL_Driver/Src/stm32f4xx_hal_rcc.c ****   if(((RCC_OscInitStruct->OscillatorType) & RCC_OSCILLATORTYPE_HSI) == RCC_OSCILLATORTYPE_HSI)
 155              		.loc 1 300 3 is_stmt 1 view .LVU38
 156              		.loc 1 300 5 is_stmt 0 view .LVU39
 157 0074 9F07     		lsls	r7, r3, #30
 158 0076 28D5     		bpl	.L19
 301:Drivers/STM32F4xx_HAL_Driver/Src/stm32f4xx_hal_rcc.c ****   {
 302:Drivers/STM32F4xx_HAL_Driver/Src/stm32f4xx_hal_rcc.c ****     /* Check the parameters */
 303:Drivers/STM32F4xx_HAL_Driver/Src/stm32f4xx_hal_rcc.c ****     assert_param(IS_RCC_HSI(RCC_OscInitStruct->HSIState));
 159              		.loc 1 303 5 is_stmt 1 view .LVU40
 304:Drivers/STM32F4xx_HAL_Driver/Src/stm32f4xx_hal_rcc.c ****     assert_param(IS_RCC_CALIBRATION_VALUE(RCC_OscInitStruct->HSICalibrationValue));
 160              		.loc 1 304 5 view .LVU41
 305:Drivers/STM32F4xx_HAL_Driver/Src/stm32f4xx_hal_rcc.c **** 
 306:Drivers/STM32F4xx_HAL_Driver/Src/stm32f4xx_hal_rcc.c ****     /* Check if HSI is used as system clock or as PLL source when PLL is selected as system clock *
 307:Drivers/STM32F4xx_HAL_Driver/Src/stm32f4xx_hal_rcc.c ****     if((__HAL_RCC_GET_SYSCLK_SOURCE() == RCC_CFGR_SWS_HSI) ||\
 161              		.loc 1 307 5 view .LVU42
 162              		.loc 1 307 9 is_stmt 0 view .LVU43
 163 0078 944A     		ldr	r2, .L112
 164 007a 9168     		ldr	r1, [r2, #8]
 165              		.loc 1 307 7 view .LVU44
 166 007c 11F00C0F 		tst	r1, #12
 167 0080 00F09B80 		beq	.L20
 308:Drivers/STM32F4xx_HAL_Driver/Src/stm32f4xx_hal_rcc.c ****       ((__HAL_RCC_GET_SYSCLK_SOURCE() == RCC_CFGR_SWS_PLL) && ((RCC->PLLCFGR & RCC_PLLCFGR_PLLSRC) 
 168              		.loc 1 308 9 discriminator 1 view .LVU45
 169 0084 9168     		ldr	r1, [r2, #8]
 170 0086 01F00C01 		and	r1, r1, #12
 307:Drivers/STM32F4xx_HAL_Driver/Src/stm32f4xx_hal_rcc.c ****       ((__HAL_RCC_GET_SYSCLK_SOURCE() == RCC_CFGR_SWS_PLL) && ((RCC->PLLCFGR & RCC_PLLCFGR_PLLSRC) 
 171              		.loc 1 307 60 discriminator 1 view .LVU46
 172 008a 0829     		cmp	r1, #8
 173 008c 00F09180 		beq	.L106
 174              	.L21:
 309:Drivers/STM32F4xx_HAL_Driver/Src/stm32f4xx_hal_rcc.c ****     {
 310:Drivers/STM32F4xx_HAL_Driver/Src/stm32f4xx_hal_rcc.c ****       /* When HSI is used as system clock it will not disabled */
 311:Drivers/STM32F4xx_HAL_Driver/Src/stm32f4xx_hal_rcc.c ****       if((__HAL_RCC_GET_FLAG(RCC_FLAG_HSIRDY) != RESET) && (RCC_OscInitStruct->HSIState != RCC_HSI_
 312:Drivers/STM32F4xx_HAL_Driver/Src/stm32f4xx_hal_rcc.c ****       {
 313:Drivers/STM32F4xx_HAL_Driver/Src/stm32f4xx_hal_rcc.c ****         return HAL_ERROR;
 314:Drivers/STM32F4xx_HAL_Driver/Src/stm32f4xx_hal_rcc.c ****       }
 315:Drivers/STM32F4xx_HAL_Driver/Src/stm32f4xx_hal_rcc.c ****       /* Otherwise, just the calibration is allowed */
 316:Drivers/STM32F4xx_HAL_Driver/Src/stm32f4xx_hal_rcc.c ****       else
 317:Drivers/STM32F4xx_HAL_Driver/Src/stm32f4xx_hal_rcc.c ****       {
 318:Drivers/STM32F4xx_HAL_Driver/Src/stm32f4xx_hal_rcc.c ****         /* Adjusts the Internal High Speed oscillator (HSI) calibration value.*/
 319:Drivers/STM32F4xx_HAL_Driver/Src/stm32f4xx_hal_rcc.c ****         __HAL_RCC_HSI_CALIBRATIONVALUE_ADJUST(RCC_OscInitStruct->HSICalibrationValue);
 320:Drivers/STM32F4xx_HAL_Driver/Src/stm32f4xx_hal_rcc.c ****       }
 321:Drivers/STM32F4xx_HAL_Driver/Src/stm32f4xx_hal_rcc.c ****     }
 322:Drivers/STM32F4xx_HAL_Driver/Src/stm32f4xx_hal_rcc.c ****     else
 323:Drivers/STM32F4xx_HAL_Driver/Src/stm32f4xx_hal_rcc.c ****     {
 324:Drivers/STM32F4xx_HAL_Driver/Src/stm32f4xx_hal_rcc.c ****       /* Check the HSI State */
 325:Drivers/STM32F4xx_HAL_Driver/Src/stm32f4xx_hal_rcc.c ****       if((RCC_OscInitStruct->HSIState)!= RCC_HSI_OFF)
 175              		.loc 1 325 7 is_stmt 1 view .LVU47
 176              		.loc 1 325 9 is_stmt 0 view .LVU48
 177 0090 E368     		ldr	r3, [r4, #12]
 178 0092 002B     		cmp	r3, #0
 179 0094 00F00881 		beq	.L23
 326:Drivers/STM32F4xx_HAL_Driver/Src/stm32f4xx_hal_rcc.c ****       {
 327:Drivers/STM32F4xx_HAL_Driver/Src/stm32f4xx_hal_rcc.c ****         /* Enable the Internal High Speed oscillator (HSI). */
 328:Drivers/STM32F4xx_HAL_Driver/Src/stm32f4xx_hal_rcc.c ****         __HAL_RCC_HSI_ENABLE();
 180              		.loc 1 328 9 is_stmt 1 view .LVU49
 181 0098 8D4B     		ldr	r3, .L112+4
ARM GAS  /tmp/cc8pL1nJ.s 			page 10


 329:Drivers/STM32F4xx_HAL_Driver/Src/stm32f4xx_hal_rcc.c **** 
 330:Drivers/STM32F4xx_HAL_Driver/Src/stm32f4xx_hal_rcc.c ****         /* Get Start Tick*/
 331:Drivers/STM32F4xx_HAL_Driver/Src/stm32f4xx_hal_rcc.c ****         tickstart = HAL_GetTick();
 332:Drivers/STM32F4xx_HAL_Driver/Src/stm32f4xx_hal_rcc.c **** 
 333:Drivers/STM32F4xx_HAL_Driver/Src/stm32f4xx_hal_rcc.c ****         /* Wait till HSI is ready */
 334:Drivers/STM32F4xx_HAL_Driver/Src/stm32f4xx_hal_rcc.c ****         while(__HAL_RCC_GET_FLAG(RCC_FLAG_HSIRDY) == RESET)
 182              		.loc 1 334 15 is_stmt 0 view .LVU50
 183 009a 8C4D     		ldr	r5, .L112
 328:Drivers/STM32F4xx_HAL_Driver/Src/stm32f4xx_hal_rcc.c **** 
 184              		.loc 1 328 9 view .LVU51
 185 009c 0122     		movs	r2, #1
 186 009e 1A60     		str	r2, [r3]
 331:Drivers/STM32F4xx_HAL_Driver/Src/stm32f4xx_hal_rcc.c **** 
 187              		.loc 1 331 9 is_stmt 1 view .LVU52
 331:Drivers/STM32F4xx_HAL_Driver/Src/stm32f4xx_hal_rcc.c **** 
 188              		.loc 1 331 21 is_stmt 0 view .LVU53
 189 00a0 FFF7FEFF 		bl	HAL_GetTick
 190              	.LVL7:
 191 00a4 0646     		mov	r6, r0
 192              	.LVL8:
 193              		.loc 1 334 9 is_stmt 1 view .LVU54
 194              		.loc 1 334 14 is_stmt 0 view .LVU55
 195 00a6 05E0     		b	.L24
 196              	.LVL9:
 197              	.L25:
 335:Drivers/STM32F4xx_HAL_Driver/Src/stm32f4xx_hal_rcc.c ****         {
 336:Drivers/STM32F4xx_HAL_Driver/Src/stm32f4xx_hal_rcc.c ****           if((HAL_GetTick() - tickstart ) > HSI_TIMEOUT_VALUE)
 198              		.loc 1 336 15 view .LVU56
 199 00a8 FFF7FEFF 		bl	HAL_GetTick
 200              	.LVL10:
 201              		.loc 1 336 29 view .LVU57
 202 00ac 801B     		subs	r0, r0, r6
 203              		.loc 1 336 13 view .LVU58
 204 00ae 0228     		cmp	r0, #2
 205 00b0 00F2DD80 		bhi	.L17
 206              	.L24:
 207              		.loc 1 336 11 is_stmt 1 view .LVU59
 334:Drivers/STM32F4xx_HAL_Driver/Src/stm32f4xx_hal_rcc.c ****         {
 208              		.loc 1 334 15 is_stmt 0 view .LVU60
 209 00b4 2B68     		ldr	r3, [r5]
 334:Drivers/STM32F4xx_HAL_Driver/Src/stm32f4xx_hal_rcc.c ****         {
 210              		.loc 1 334 14 view .LVU61
 211 00b6 9807     		lsls	r0, r3, #30
 212 00b8 F6D5     		bpl	.L25
 337:Drivers/STM32F4xx_HAL_Driver/Src/stm32f4xx_hal_rcc.c ****           {
 338:Drivers/STM32F4xx_HAL_Driver/Src/stm32f4xx_hal_rcc.c ****             return HAL_TIMEOUT;
 339:Drivers/STM32F4xx_HAL_Driver/Src/stm32f4xx_hal_rcc.c ****           }
 340:Drivers/STM32F4xx_HAL_Driver/Src/stm32f4xx_hal_rcc.c ****         }
 341:Drivers/STM32F4xx_HAL_Driver/Src/stm32f4xx_hal_rcc.c **** 
 342:Drivers/STM32F4xx_HAL_Driver/Src/stm32f4xx_hal_rcc.c ****         /* Adjusts the Internal High Speed oscillator (HSI) calibration value. */
 343:Drivers/STM32F4xx_HAL_Driver/Src/stm32f4xx_hal_rcc.c ****         __HAL_RCC_HSI_CALIBRATIONVALUE_ADJUST(RCC_OscInitStruct->HSICalibrationValue);
 213              		.loc 1 343 9 is_stmt 1 view .LVU62
 214 00ba 2B68     		ldr	r3, [r5]
 215 00bc 2269     		ldr	r2, [r4, #16]
 216 00be 23F0F803 		bic	r3, r3, #248
 217 00c2 43EAC203 		orr	r3, r3, r2, lsl #3
 218 00c6 2B60     		str	r3, [r5]
ARM GAS  /tmp/cc8pL1nJ.s 			page 11


 219 00c8 2368     		ldr	r3, [r4]
 220              	.LVL11:
 221              	.L19:
 344:Drivers/STM32F4xx_HAL_Driver/Src/stm32f4xx_hal_rcc.c ****       }
 345:Drivers/STM32F4xx_HAL_Driver/Src/stm32f4xx_hal_rcc.c ****       else
 346:Drivers/STM32F4xx_HAL_Driver/Src/stm32f4xx_hal_rcc.c ****       {
 347:Drivers/STM32F4xx_HAL_Driver/Src/stm32f4xx_hal_rcc.c ****         /* Disable the Internal High Speed oscillator (HSI). */
 348:Drivers/STM32F4xx_HAL_Driver/Src/stm32f4xx_hal_rcc.c ****         __HAL_RCC_HSI_DISABLE();
 349:Drivers/STM32F4xx_HAL_Driver/Src/stm32f4xx_hal_rcc.c **** 
 350:Drivers/STM32F4xx_HAL_Driver/Src/stm32f4xx_hal_rcc.c ****         /* Get Start Tick*/
 351:Drivers/STM32F4xx_HAL_Driver/Src/stm32f4xx_hal_rcc.c ****         tickstart = HAL_GetTick();
 352:Drivers/STM32F4xx_HAL_Driver/Src/stm32f4xx_hal_rcc.c **** 
 353:Drivers/STM32F4xx_HAL_Driver/Src/stm32f4xx_hal_rcc.c ****         /* Wait till HSI is ready */
 354:Drivers/STM32F4xx_HAL_Driver/Src/stm32f4xx_hal_rcc.c ****         while(__HAL_RCC_GET_FLAG(RCC_FLAG_HSIRDY) != RESET)
 355:Drivers/STM32F4xx_HAL_Driver/Src/stm32f4xx_hal_rcc.c ****         {
 356:Drivers/STM32F4xx_HAL_Driver/Src/stm32f4xx_hal_rcc.c ****           if((HAL_GetTick() - tickstart ) > HSI_TIMEOUT_VALUE)
 357:Drivers/STM32F4xx_HAL_Driver/Src/stm32f4xx_hal_rcc.c ****           {
 358:Drivers/STM32F4xx_HAL_Driver/Src/stm32f4xx_hal_rcc.c ****             return HAL_TIMEOUT;
 359:Drivers/STM32F4xx_HAL_Driver/Src/stm32f4xx_hal_rcc.c ****           }
 360:Drivers/STM32F4xx_HAL_Driver/Src/stm32f4xx_hal_rcc.c ****         }
 361:Drivers/STM32F4xx_HAL_Driver/Src/stm32f4xx_hal_rcc.c ****       }
 362:Drivers/STM32F4xx_HAL_Driver/Src/stm32f4xx_hal_rcc.c ****     }
 363:Drivers/STM32F4xx_HAL_Driver/Src/stm32f4xx_hal_rcc.c ****   }
 364:Drivers/STM32F4xx_HAL_Driver/Src/stm32f4xx_hal_rcc.c ****   /*------------------------------ LSI Configuration -------------------------*/
 365:Drivers/STM32F4xx_HAL_Driver/Src/stm32f4xx_hal_rcc.c ****   if(((RCC_OscInitStruct->OscillatorType) & RCC_OSCILLATORTYPE_LSI) == RCC_OSCILLATORTYPE_LSI)
 222              		.loc 1 365 3 view .LVU63
 223              		.loc 1 365 5 is_stmt 0 view .LVU64
 224 00ca 1A07     		lsls	r2, r3, #28
 225 00cc 5DD4     		bmi	.L107
 226              	.L28:
 366:Drivers/STM32F4xx_HAL_Driver/Src/stm32f4xx_hal_rcc.c ****   {
 367:Drivers/STM32F4xx_HAL_Driver/Src/stm32f4xx_hal_rcc.c ****     /* Check the parameters */
 368:Drivers/STM32F4xx_HAL_Driver/Src/stm32f4xx_hal_rcc.c ****     assert_param(IS_RCC_LSI(RCC_OscInitStruct->LSIState));
 369:Drivers/STM32F4xx_HAL_Driver/Src/stm32f4xx_hal_rcc.c **** 
 370:Drivers/STM32F4xx_HAL_Driver/Src/stm32f4xx_hal_rcc.c ****     /* Check the LSI State */
 371:Drivers/STM32F4xx_HAL_Driver/Src/stm32f4xx_hal_rcc.c ****     if((RCC_OscInitStruct->LSIState)!= RCC_LSI_OFF)
 372:Drivers/STM32F4xx_HAL_Driver/Src/stm32f4xx_hal_rcc.c ****     {
 373:Drivers/STM32F4xx_HAL_Driver/Src/stm32f4xx_hal_rcc.c ****       /* Enable the Internal Low Speed oscillator (LSI). */
 374:Drivers/STM32F4xx_HAL_Driver/Src/stm32f4xx_hal_rcc.c ****       __HAL_RCC_LSI_ENABLE();
 375:Drivers/STM32F4xx_HAL_Driver/Src/stm32f4xx_hal_rcc.c **** 
 376:Drivers/STM32F4xx_HAL_Driver/Src/stm32f4xx_hal_rcc.c ****       /* Get Start Tick*/
 377:Drivers/STM32F4xx_HAL_Driver/Src/stm32f4xx_hal_rcc.c ****       tickstart = HAL_GetTick();
 378:Drivers/STM32F4xx_HAL_Driver/Src/stm32f4xx_hal_rcc.c **** 
 379:Drivers/STM32F4xx_HAL_Driver/Src/stm32f4xx_hal_rcc.c ****       /* Wait till LSI is ready */
 380:Drivers/STM32F4xx_HAL_Driver/Src/stm32f4xx_hal_rcc.c ****       while(__HAL_RCC_GET_FLAG(RCC_FLAG_LSIRDY) == RESET)
 381:Drivers/STM32F4xx_HAL_Driver/Src/stm32f4xx_hal_rcc.c ****       {
 382:Drivers/STM32F4xx_HAL_Driver/Src/stm32f4xx_hal_rcc.c ****         if((HAL_GetTick() - tickstart ) > LSI_TIMEOUT_VALUE)
 383:Drivers/STM32F4xx_HAL_Driver/Src/stm32f4xx_hal_rcc.c ****         {
 384:Drivers/STM32F4xx_HAL_Driver/Src/stm32f4xx_hal_rcc.c ****           return HAL_TIMEOUT;
 385:Drivers/STM32F4xx_HAL_Driver/Src/stm32f4xx_hal_rcc.c ****         }
 386:Drivers/STM32F4xx_HAL_Driver/Src/stm32f4xx_hal_rcc.c ****       }
 387:Drivers/STM32F4xx_HAL_Driver/Src/stm32f4xx_hal_rcc.c ****     }
 388:Drivers/STM32F4xx_HAL_Driver/Src/stm32f4xx_hal_rcc.c ****     else
 389:Drivers/STM32F4xx_HAL_Driver/Src/stm32f4xx_hal_rcc.c ****     {
 390:Drivers/STM32F4xx_HAL_Driver/Src/stm32f4xx_hal_rcc.c ****       /* Disable the Internal Low Speed oscillator (LSI). */
 391:Drivers/STM32F4xx_HAL_Driver/Src/stm32f4xx_hal_rcc.c ****       __HAL_RCC_LSI_DISABLE();
 392:Drivers/STM32F4xx_HAL_Driver/Src/stm32f4xx_hal_rcc.c **** 
ARM GAS  /tmp/cc8pL1nJ.s 			page 12


 393:Drivers/STM32F4xx_HAL_Driver/Src/stm32f4xx_hal_rcc.c ****       /* Get Start Tick */
 394:Drivers/STM32F4xx_HAL_Driver/Src/stm32f4xx_hal_rcc.c ****       tickstart = HAL_GetTick();
 395:Drivers/STM32F4xx_HAL_Driver/Src/stm32f4xx_hal_rcc.c **** 
 396:Drivers/STM32F4xx_HAL_Driver/Src/stm32f4xx_hal_rcc.c ****       /* Wait till LSI is ready */
 397:Drivers/STM32F4xx_HAL_Driver/Src/stm32f4xx_hal_rcc.c ****       while(__HAL_RCC_GET_FLAG(RCC_FLAG_LSIRDY) != RESET)
 398:Drivers/STM32F4xx_HAL_Driver/Src/stm32f4xx_hal_rcc.c ****       {
 399:Drivers/STM32F4xx_HAL_Driver/Src/stm32f4xx_hal_rcc.c ****         if((HAL_GetTick() - tickstart ) > LSI_TIMEOUT_VALUE)
 400:Drivers/STM32F4xx_HAL_Driver/Src/stm32f4xx_hal_rcc.c ****         {
 401:Drivers/STM32F4xx_HAL_Driver/Src/stm32f4xx_hal_rcc.c ****           return HAL_TIMEOUT;
 402:Drivers/STM32F4xx_HAL_Driver/Src/stm32f4xx_hal_rcc.c ****         }
 403:Drivers/STM32F4xx_HAL_Driver/Src/stm32f4xx_hal_rcc.c ****       }
 404:Drivers/STM32F4xx_HAL_Driver/Src/stm32f4xx_hal_rcc.c ****     }
 405:Drivers/STM32F4xx_HAL_Driver/Src/stm32f4xx_hal_rcc.c ****   }
 406:Drivers/STM32F4xx_HAL_Driver/Src/stm32f4xx_hal_rcc.c ****   /*------------------------------ LSE Configuration -------------------------*/
 407:Drivers/STM32F4xx_HAL_Driver/Src/stm32f4xx_hal_rcc.c ****   if(((RCC_OscInitStruct->OscillatorType) & RCC_OSCILLATORTYPE_LSE) == RCC_OSCILLATORTYPE_LSE)
 227              		.loc 1 407 3 is_stmt 1 view .LVU65
 228              		.loc 1 407 5 is_stmt 0 view .LVU66
 229 00ce 5807     		lsls	r0, r3, #29
 230 00d0 3BD5     		bpl	.L35
 231              	.LBB6:
 408:Drivers/STM32F4xx_HAL_Driver/Src/stm32f4xx_hal_rcc.c ****   {
 409:Drivers/STM32F4xx_HAL_Driver/Src/stm32f4xx_hal_rcc.c ****     FlagStatus       pwrclkchanged = RESET;
 232              		.loc 1 409 5 is_stmt 1 view .LVU67
 233              	.LVL12:
 410:Drivers/STM32F4xx_HAL_Driver/Src/stm32f4xx_hal_rcc.c **** 
 411:Drivers/STM32F4xx_HAL_Driver/Src/stm32f4xx_hal_rcc.c ****     /* Check the parameters */
 412:Drivers/STM32F4xx_HAL_Driver/Src/stm32f4xx_hal_rcc.c ****     assert_param(IS_RCC_LSE(RCC_OscInitStruct->LSEState));
 234              		.loc 1 412 5 view .LVU68
 413:Drivers/STM32F4xx_HAL_Driver/Src/stm32f4xx_hal_rcc.c **** 
 414:Drivers/STM32F4xx_HAL_Driver/Src/stm32f4xx_hal_rcc.c ****     /* Update LSE configuration in Backup Domain control register    */
 415:Drivers/STM32F4xx_HAL_Driver/Src/stm32f4xx_hal_rcc.c ****     /* Requires to enable write access to Backup Domain of necessary */
 416:Drivers/STM32F4xx_HAL_Driver/Src/stm32f4xx_hal_rcc.c ****     if(__HAL_RCC_PWR_IS_CLK_DISABLED())
 235              		.loc 1 416 5 view .LVU69
 236              		.loc 1 416 8 is_stmt 0 view .LVU70
 237 00d2 7E4A     		ldr	r2, .L112
 238 00d4 136C     		ldr	r3, [r2, #64]
 239              		.loc 1 416 7 view .LVU71
 240 00d6 13F08053 		ands	r3, r3, #268435456
 241 00da 40F08980 		bne	.L62
 417:Drivers/STM32F4xx_HAL_Driver/Src/stm32f4xx_hal_rcc.c ****     {
 418:Drivers/STM32F4xx_HAL_Driver/Src/stm32f4xx_hal_rcc.c ****       __HAL_RCC_PWR_CLK_ENABLE();
 242              		.loc 1 418 7 is_stmt 1 view .LVU72
 243              	.LBB7:
 244              		.loc 1 418 7 view .LVU73
 245 00de 0193     		str	r3, [sp, #4]
 246              		.loc 1 418 7 view .LVU74
 247 00e0 136C     		ldr	r3, [r2, #64]
 248 00e2 43F08053 		orr	r3, r3, #268435456
 249 00e6 1364     		str	r3, [r2, #64]
 250              		.loc 1 418 7 view .LVU75
 251 00e8 136C     		ldr	r3, [r2, #64]
 252 00ea 03F08053 		and	r3, r3, #268435456
 253 00ee 0193     		str	r3, [sp, #4]
 254              		.loc 1 418 7 view .LVU76
 255 00f0 019B     		ldr	r3, [sp, #4]
 256              	.LBE7:
 419:Drivers/STM32F4xx_HAL_Driver/Src/stm32f4xx_hal_rcc.c ****       pwrclkchanged = SET;
ARM GAS  /tmp/cc8pL1nJ.s 			page 13


 257              		.loc 1 419 7 view .LVU77
 258              	.LVL13:
 259              		.loc 1 419 21 is_stmt 0 view .LVU78
 260 00f2 0126     		movs	r6, #1
 261              	.LVL14:
 262              	.L36:
 420:Drivers/STM32F4xx_HAL_Driver/Src/stm32f4xx_hal_rcc.c ****     }
 421:Drivers/STM32F4xx_HAL_Driver/Src/stm32f4xx_hal_rcc.c **** 
 422:Drivers/STM32F4xx_HAL_Driver/Src/stm32f4xx_hal_rcc.c ****     if(HAL_IS_BIT_CLR(PWR->CR, PWR_CR_DBP))
 263              		.loc 1 422 5 is_stmt 1 view .LVU79
 264              		.loc 1 422 8 is_stmt 0 view .LVU80
 265 00f4 774D     		ldr	r5, .L112+8
 266 00f6 2B68     		ldr	r3, [r5]
 267              		.loc 1 422 7 view .LVU81
 268 00f8 D905     		lsls	r1, r3, #23
 269 00fa 40F1A880 		bpl	.L37
 270              	.L42:
 423:Drivers/STM32F4xx_HAL_Driver/Src/stm32f4xx_hal_rcc.c ****     {
 424:Drivers/STM32F4xx_HAL_Driver/Src/stm32f4xx_hal_rcc.c ****       /* Enable write access to Backup domain */
 425:Drivers/STM32F4xx_HAL_Driver/Src/stm32f4xx_hal_rcc.c ****       SET_BIT(PWR->CR, PWR_CR_DBP);
 426:Drivers/STM32F4xx_HAL_Driver/Src/stm32f4xx_hal_rcc.c **** 
 427:Drivers/STM32F4xx_HAL_Driver/Src/stm32f4xx_hal_rcc.c ****       /* Wait for Backup domain Write protection disable */
 428:Drivers/STM32F4xx_HAL_Driver/Src/stm32f4xx_hal_rcc.c ****       tickstart = HAL_GetTick();
 429:Drivers/STM32F4xx_HAL_Driver/Src/stm32f4xx_hal_rcc.c **** 
 430:Drivers/STM32F4xx_HAL_Driver/Src/stm32f4xx_hal_rcc.c ****       while(HAL_IS_BIT_CLR(PWR->CR, PWR_CR_DBP))
 431:Drivers/STM32F4xx_HAL_Driver/Src/stm32f4xx_hal_rcc.c ****       {
 432:Drivers/STM32F4xx_HAL_Driver/Src/stm32f4xx_hal_rcc.c ****         if((HAL_GetTick() - tickstart) > RCC_DBP_TIMEOUT_VALUE)
 433:Drivers/STM32F4xx_HAL_Driver/Src/stm32f4xx_hal_rcc.c ****         {
 434:Drivers/STM32F4xx_HAL_Driver/Src/stm32f4xx_hal_rcc.c ****           return HAL_TIMEOUT;
 435:Drivers/STM32F4xx_HAL_Driver/Src/stm32f4xx_hal_rcc.c ****         }
 436:Drivers/STM32F4xx_HAL_Driver/Src/stm32f4xx_hal_rcc.c ****       }
 437:Drivers/STM32F4xx_HAL_Driver/Src/stm32f4xx_hal_rcc.c ****     }
 438:Drivers/STM32F4xx_HAL_Driver/Src/stm32f4xx_hal_rcc.c **** 
 439:Drivers/STM32F4xx_HAL_Driver/Src/stm32f4xx_hal_rcc.c ****     /* Set the new LSE configuration -----------------------------------------*/
 440:Drivers/STM32F4xx_HAL_Driver/Src/stm32f4xx_hal_rcc.c ****     __HAL_RCC_LSE_CONFIG(RCC_OscInitStruct->LSEState);
 271              		.loc 1 440 5 is_stmt 1 view .LVU82
 272              		.loc 1 440 5 view .LVU83
 273 00fe A368     		ldr	r3, [r4, #8]
 274 0100 012B     		cmp	r3, #1
 275 0102 00F0B880 		beq	.L108
 276              		.loc 1 440 5 discriminator 2 view .LVU84
 277 0106 052B     		cmp	r3, #5
 278 0108 00F02881 		beq	.L109
 279              		.loc 1 440 5 discriminator 4 view .LVU85
 280 010c 6F4D     		ldr	r5, .L112
 281 010e 2A6F     		ldr	r2, [r5, #112]
 282 0110 22F00102 		bic	r2, r2, #1
 283 0114 2A67     		str	r2, [r5, #112]
 284              		.loc 1 440 5 discriminator 4 view .LVU86
 285 0116 2A6F     		ldr	r2, [r5, #112]
 286 0118 22F00402 		bic	r2, r2, #4
 287 011c 2A67     		str	r2, [r5, #112]
 441:Drivers/STM32F4xx_HAL_Driver/Src/stm32f4xx_hal_rcc.c ****     /* Check the LSE State */
 442:Drivers/STM32F4xx_HAL_Driver/Src/stm32f4xx_hal_rcc.c ****     if((RCC_OscInitStruct->LSEState) != RCC_LSE_OFF)
 288              		.loc 1 442 5 discriminator 4 view .LVU87
 289              		.loc 1 442 7 is_stmt 0 discriminator 4 view .LVU88
 290 011e 002B     		cmp	r3, #0
ARM GAS  /tmp/cc8pL1nJ.s 			page 14


 291 0120 40F0AE80 		bne	.L43
 443:Drivers/STM32F4xx_HAL_Driver/Src/stm32f4xx_hal_rcc.c ****     {
 444:Drivers/STM32F4xx_HAL_Driver/Src/stm32f4xx_hal_rcc.c ****       /* Get Start Tick*/
 445:Drivers/STM32F4xx_HAL_Driver/Src/stm32f4xx_hal_rcc.c ****       tickstart = HAL_GetTick();
 446:Drivers/STM32F4xx_HAL_Driver/Src/stm32f4xx_hal_rcc.c **** 
 447:Drivers/STM32F4xx_HAL_Driver/Src/stm32f4xx_hal_rcc.c ****       /* Wait till LSE is ready */
 448:Drivers/STM32F4xx_HAL_Driver/Src/stm32f4xx_hal_rcc.c ****       while(__HAL_RCC_GET_FLAG(RCC_FLAG_LSERDY) == RESET)
 449:Drivers/STM32F4xx_HAL_Driver/Src/stm32f4xx_hal_rcc.c ****       {
 450:Drivers/STM32F4xx_HAL_Driver/Src/stm32f4xx_hal_rcc.c ****         if((HAL_GetTick() - tickstart ) > RCC_LSE_TIMEOUT_VALUE)
 451:Drivers/STM32F4xx_HAL_Driver/Src/stm32f4xx_hal_rcc.c ****         {
 452:Drivers/STM32F4xx_HAL_Driver/Src/stm32f4xx_hal_rcc.c ****           return HAL_TIMEOUT;
 453:Drivers/STM32F4xx_HAL_Driver/Src/stm32f4xx_hal_rcc.c ****         }
 454:Drivers/STM32F4xx_HAL_Driver/Src/stm32f4xx_hal_rcc.c ****       }
 455:Drivers/STM32F4xx_HAL_Driver/Src/stm32f4xx_hal_rcc.c ****     }
 456:Drivers/STM32F4xx_HAL_Driver/Src/stm32f4xx_hal_rcc.c ****     else
 457:Drivers/STM32F4xx_HAL_Driver/Src/stm32f4xx_hal_rcc.c ****     {
 458:Drivers/STM32F4xx_HAL_Driver/Src/stm32f4xx_hal_rcc.c ****       /* Get Start Tick */
 459:Drivers/STM32F4xx_HAL_Driver/Src/stm32f4xx_hal_rcc.c ****       tickstart = HAL_GetTick();
 292              		.loc 1 459 7 is_stmt 1 view .LVU89
 293              		.loc 1 459 19 is_stmt 0 view .LVU90
 294 0124 FFF7FEFF 		bl	HAL_GetTick
 295              	.LVL15:
 460:Drivers/STM32F4xx_HAL_Driver/Src/stm32f4xx_hal_rcc.c **** 
 461:Drivers/STM32F4xx_HAL_Driver/Src/stm32f4xx_hal_rcc.c ****       /* Wait till LSE is ready */
 462:Drivers/STM32F4xx_HAL_Driver/Src/stm32f4xx_hal_rcc.c ****       while(__HAL_RCC_GET_FLAG(RCC_FLAG_LSERDY) != RESET)
 463:Drivers/STM32F4xx_HAL_Driver/Src/stm32f4xx_hal_rcc.c ****       {
 464:Drivers/STM32F4xx_HAL_Driver/Src/stm32f4xx_hal_rcc.c ****         if((HAL_GetTick() - tickstart ) > RCC_LSE_TIMEOUT_VALUE)
 296              		.loc 1 464 11 view .LVU91
 297 0128 41F28837 		movw	r7, #5000
 459:Drivers/STM32F4xx_HAL_Driver/Src/stm32f4xx_hal_rcc.c **** 
 298              		.loc 1 459 19 view .LVU92
 299 012c 8046     		mov	r8, r0
 300              	.LVL16:
 462:Drivers/STM32F4xx_HAL_Driver/Src/stm32f4xx_hal_rcc.c ****       {
 301              		.loc 1 462 7 is_stmt 1 view .LVU93
 462:Drivers/STM32F4xx_HAL_Driver/Src/stm32f4xx_hal_rcc.c ****       {
 302              		.loc 1 462 12 is_stmt 0 view .LVU94
 303 012e 06E0     		b	.L49
 304              	.LVL17:
 305              	.L50:
 306              		.loc 1 464 13 view .LVU95
 307 0130 FFF7FEFF 		bl	HAL_GetTick
 308              	.LVL18:
 309              		.loc 1 464 27 view .LVU96
 310 0134 A0EB0800 		sub	r0, r0, r8
 311              		.loc 1 464 11 view .LVU97
 312 0138 B842     		cmp	r0, r7
 313 013a 00F29880 		bhi	.L17
 314              	.L49:
 315              		.loc 1 464 9 is_stmt 1 view .LVU98
 462:Drivers/STM32F4xx_HAL_Driver/Src/stm32f4xx_hal_rcc.c ****       {
 316              		.loc 1 462 13 is_stmt 0 view .LVU99
 317 013e 2B6F     		ldr	r3, [r5, #112]
 462:Drivers/STM32F4xx_HAL_Driver/Src/stm32f4xx_hal_rcc.c ****       {
 318              		.loc 1 462 12 view .LVU100
 319 0140 9807     		lsls	r0, r3, #30
 320 0142 F5D4     		bmi	.L50
ARM GAS  /tmp/cc8pL1nJ.s 			page 15


 465:Drivers/STM32F4xx_HAL_Driver/Src/stm32f4xx_hal_rcc.c ****         {
 466:Drivers/STM32F4xx_HAL_Driver/Src/stm32f4xx_hal_rcc.c ****           return HAL_TIMEOUT;
 467:Drivers/STM32F4xx_HAL_Driver/Src/stm32f4xx_hal_rcc.c ****         }
 468:Drivers/STM32F4xx_HAL_Driver/Src/stm32f4xx_hal_rcc.c ****       }
 469:Drivers/STM32F4xx_HAL_Driver/Src/stm32f4xx_hal_rcc.c ****     }
 470:Drivers/STM32F4xx_HAL_Driver/Src/stm32f4xx_hal_rcc.c **** 
 471:Drivers/STM32F4xx_HAL_Driver/Src/stm32f4xx_hal_rcc.c ****     /* Restore clock configuration if changed */
 472:Drivers/STM32F4xx_HAL_Driver/Src/stm32f4xx_hal_rcc.c ****     if(pwrclkchanged == SET)
 321              		.loc 1 472 5 is_stmt 1 view .LVU101
 322              		.loc 1 472 7 is_stmt 0 view .LVU102
 323 0144 002E     		cmp	r6, #0
 324 0146 40F0D780 		bne	.L110
 325              	.LVL19:
 326              	.L35:
 327              		.loc 1 472 7 view .LVU103
 328              	.LBE6:
 473:Drivers/STM32F4xx_HAL_Driver/Src/stm32f4xx_hal_rcc.c ****     {
 474:Drivers/STM32F4xx_HAL_Driver/Src/stm32f4xx_hal_rcc.c ****       __HAL_RCC_PWR_CLK_DISABLE();
 475:Drivers/STM32F4xx_HAL_Driver/Src/stm32f4xx_hal_rcc.c ****     }
 476:Drivers/STM32F4xx_HAL_Driver/Src/stm32f4xx_hal_rcc.c ****   }
 477:Drivers/STM32F4xx_HAL_Driver/Src/stm32f4xx_hal_rcc.c ****   /*-------------------------------- PLL Configuration -----------------------*/
 478:Drivers/STM32F4xx_HAL_Driver/Src/stm32f4xx_hal_rcc.c ****   /* Check the parameters */
 479:Drivers/STM32F4xx_HAL_Driver/Src/stm32f4xx_hal_rcc.c ****   assert_param(IS_RCC_PLL(RCC_OscInitStruct->PLL.PLLState));
 329              		.loc 1 479 3 is_stmt 1 view .LVU104
 480:Drivers/STM32F4xx_HAL_Driver/Src/stm32f4xx_hal_rcc.c ****   if ((RCC_OscInitStruct->PLL.PLLState) != RCC_PLL_NONE)
 330              		.loc 1 480 3 view .LVU105
 331              		.loc 1 480 30 is_stmt 0 view .LVU106
 332 014a A369     		ldr	r3, [r4, #24]
 333              		.loc 1 480 6 view .LVU107
 334 014c CBB1     		cbz	r3, .L58
 481:Drivers/STM32F4xx_HAL_Driver/Src/stm32f4xx_hal_rcc.c ****   {
 482:Drivers/STM32F4xx_HAL_Driver/Src/stm32f4xx_hal_rcc.c ****     /* Check if the PLL is used as system clock or not */
 483:Drivers/STM32F4xx_HAL_Driver/Src/stm32f4xx_hal_rcc.c ****     if(__HAL_RCC_GET_SYSCLK_SOURCE() != RCC_CFGR_SWS_PLL)
 335              		.loc 1 483 5 is_stmt 1 view .LVU108
 336              		.loc 1 483 8 is_stmt 0 view .LVU109
 337 014e 5F4D     		ldr	r5, .L112
 338 0150 AA68     		ldr	r2, [r5, #8]
 339 0152 02F00C02 		and	r2, r2, #12
 340              		.loc 1 483 7 view .LVU110
 341 0156 082A     		cmp	r2, #8
 342 0158 36D0     		beq	.L9
 484:Drivers/STM32F4xx_HAL_Driver/Src/stm32f4xx_hal_rcc.c ****     {
 485:Drivers/STM32F4xx_HAL_Driver/Src/stm32f4xx_hal_rcc.c ****       if((RCC_OscInitStruct->PLL.PLLState) == RCC_PLL_ON)
 343              		.loc 1 485 7 is_stmt 1 view .LVU111
 344              		.loc 1 485 9 is_stmt 0 view .LVU112
 345 015a 022B     		cmp	r3, #2
 486:Drivers/STM32F4xx_HAL_Driver/Src/stm32f4xx_hal_rcc.c ****       {
 487:Drivers/STM32F4xx_HAL_Driver/Src/stm32f4xx_hal_rcc.c ****         /* Check the parameters */
 488:Drivers/STM32F4xx_HAL_Driver/Src/stm32f4xx_hal_rcc.c ****         assert_param(IS_RCC_PLLSOURCE(RCC_OscInitStruct->PLL.PLLSource));
 489:Drivers/STM32F4xx_HAL_Driver/Src/stm32f4xx_hal_rcc.c ****         assert_param(IS_RCC_PLLM_VALUE(RCC_OscInitStruct->PLL.PLLM));
 490:Drivers/STM32F4xx_HAL_Driver/Src/stm32f4xx_hal_rcc.c ****         assert_param(IS_RCC_PLLN_VALUE(RCC_OscInitStruct->PLL.PLLN));
 491:Drivers/STM32F4xx_HAL_Driver/Src/stm32f4xx_hal_rcc.c ****         assert_param(IS_RCC_PLLP_VALUE(RCC_OscInitStruct->PLL.PLLP));
 492:Drivers/STM32F4xx_HAL_Driver/Src/stm32f4xx_hal_rcc.c ****         assert_param(IS_RCC_PLLQ_VALUE(RCC_OscInitStruct->PLL.PLLQ));
 493:Drivers/STM32F4xx_HAL_Driver/Src/stm32f4xx_hal_rcc.c **** 
 494:Drivers/STM32F4xx_HAL_Driver/Src/stm32f4xx_hal_rcc.c ****         /* Disable the main PLL. */
 495:Drivers/STM32F4xx_HAL_Driver/Src/stm32f4xx_hal_rcc.c ****         __HAL_RCC_PLL_DISABLE();
 346              		.loc 1 495 9 view .LVU113
ARM GAS  /tmp/cc8pL1nJ.s 			page 16


 347 015c 5E4B     		ldr	r3, .L112+12
 348 015e 4FF00002 		mov	r2, #0
 349 0162 1A60     		str	r2, [r3]
 485:Drivers/STM32F4xx_HAL_Driver/Src/stm32f4xx_hal_rcc.c ****       {
 350              		.loc 1 485 9 view .LVU114
 351 0164 00F0CE80 		beq	.L111
 496:Drivers/STM32F4xx_HAL_Driver/Src/stm32f4xx_hal_rcc.c **** 
 497:Drivers/STM32F4xx_HAL_Driver/Src/stm32f4xx_hal_rcc.c ****         /* Get Start Tick */
 498:Drivers/STM32F4xx_HAL_Driver/Src/stm32f4xx_hal_rcc.c ****         tickstart = HAL_GetTick();
 499:Drivers/STM32F4xx_HAL_Driver/Src/stm32f4xx_hal_rcc.c **** 
 500:Drivers/STM32F4xx_HAL_Driver/Src/stm32f4xx_hal_rcc.c ****         /* Wait till PLL is ready */
 501:Drivers/STM32F4xx_HAL_Driver/Src/stm32f4xx_hal_rcc.c ****         while(__HAL_RCC_GET_FLAG(RCC_FLAG_PLLRDY) != RESET)
 502:Drivers/STM32F4xx_HAL_Driver/Src/stm32f4xx_hal_rcc.c ****         {
 503:Drivers/STM32F4xx_HAL_Driver/Src/stm32f4xx_hal_rcc.c ****           if((HAL_GetTick() - tickstart ) > PLL_TIMEOUT_VALUE)
 504:Drivers/STM32F4xx_HAL_Driver/Src/stm32f4xx_hal_rcc.c ****           {
 505:Drivers/STM32F4xx_HAL_Driver/Src/stm32f4xx_hal_rcc.c ****             return HAL_TIMEOUT;
 506:Drivers/STM32F4xx_HAL_Driver/Src/stm32f4xx_hal_rcc.c ****           }
 507:Drivers/STM32F4xx_HAL_Driver/Src/stm32f4xx_hal_rcc.c ****         }
 508:Drivers/STM32F4xx_HAL_Driver/Src/stm32f4xx_hal_rcc.c **** 
 509:Drivers/STM32F4xx_HAL_Driver/Src/stm32f4xx_hal_rcc.c ****         /* Configure the main PLL clock source, multiplication and division factors. */
 510:Drivers/STM32F4xx_HAL_Driver/Src/stm32f4xx_hal_rcc.c ****         WRITE_REG(RCC->PLLCFGR, (RCC_OscInitStruct->PLL.PLLSource                                  
 511:Drivers/STM32F4xx_HAL_Driver/Src/stm32f4xx_hal_rcc.c ****                                  RCC_OscInitStruct->PLL.PLLM                                       
 512:Drivers/STM32F4xx_HAL_Driver/Src/stm32f4xx_hal_rcc.c ****                                  (RCC_OscInitStruct->PLL.PLLN << RCC_PLLCFGR_PLLN_Pos)             
 513:Drivers/STM32F4xx_HAL_Driver/Src/stm32f4xx_hal_rcc.c ****                                  (((RCC_OscInitStruct->PLL.PLLP >> 1U) - 1U) << RCC_PLLCFGR_PLLP_Po
 514:Drivers/STM32F4xx_HAL_Driver/Src/stm32f4xx_hal_rcc.c ****                                  (RCC_OscInitStruct->PLL.PLLQ << RCC_PLLCFGR_PLLQ_Pos)));
 515:Drivers/STM32F4xx_HAL_Driver/Src/stm32f4xx_hal_rcc.c ****         /* Enable the main PLL. */
 516:Drivers/STM32F4xx_HAL_Driver/Src/stm32f4xx_hal_rcc.c ****         __HAL_RCC_PLL_ENABLE();
 517:Drivers/STM32F4xx_HAL_Driver/Src/stm32f4xx_hal_rcc.c **** 
 518:Drivers/STM32F4xx_HAL_Driver/Src/stm32f4xx_hal_rcc.c ****         /* Get Start Tick */
 519:Drivers/STM32F4xx_HAL_Driver/Src/stm32f4xx_hal_rcc.c ****         tickstart = HAL_GetTick();
 520:Drivers/STM32F4xx_HAL_Driver/Src/stm32f4xx_hal_rcc.c **** 
 521:Drivers/STM32F4xx_HAL_Driver/Src/stm32f4xx_hal_rcc.c ****         /* Wait till PLL is ready */
 522:Drivers/STM32F4xx_HAL_Driver/Src/stm32f4xx_hal_rcc.c ****         while(__HAL_RCC_GET_FLAG(RCC_FLAG_PLLRDY) == RESET)
 523:Drivers/STM32F4xx_HAL_Driver/Src/stm32f4xx_hal_rcc.c ****         {
 524:Drivers/STM32F4xx_HAL_Driver/Src/stm32f4xx_hal_rcc.c ****           if((HAL_GetTick() - tickstart ) > PLL_TIMEOUT_VALUE)
 525:Drivers/STM32F4xx_HAL_Driver/Src/stm32f4xx_hal_rcc.c ****           {
 526:Drivers/STM32F4xx_HAL_Driver/Src/stm32f4xx_hal_rcc.c ****             return HAL_TIMEOUT;
 527:Drivers/STM32F4xx_HAL_Driver/Src/stm32f4xx_hal_rcc.c ****           }
 528:Drivers/STM32F4xx_HAL_Driver/Src/stm32f4xx_hal_rcc.c ****         }
 529:Drivers/STM32F4xx_HAL_Driver/Src/stm32f4xx_hal_rcc.c ****       }
 530:Drivers/STM32F4xx_HAL_Driver/Src/stm32f4xx_hal_rcc.c ****       else
 531:Drivers/STM32F4xx_HAL_Driver/Src/stm32f4xx_hal_rcc.c ****       {
 532:Drivers/STM32F4xx_HAL_Driver/Src/stm32f4xx_hal_rcc.c ****         /* Disable the main PLL. */
 533:Drivers/STM32F4xx_HAL_Driver/Src/stm32f4xx_hal_rcc.c ****         __HAL_RCC_PLL_DISABLE();
 352              		.loc 1 533 9 is_stmt 1 view .LVU115
 534:Drivers/STM32F4xx_HAL_Driver/Src/stm32f4xx_hal_rcc.c **** 
 535:Drivers/STM32F4xx_HAL_Driver/Src/stm32f4xx_hal_rcc.c ****         /* Get Start Tick */
 536:Drivers/STM32F4xx_HAL_Driver/Src/stm32f4xx_hal_rcc.c ****         tickstart = HAL_GetTick();
 353              		.loc 1 536 9 view .LVU116
 354              		.loc 1 536 21 is_stmt 0 view .LVU117
 355 0168 FFF7FEFF 		bl	HAL_GetTick
 356              	.LVL20:
 537:Drivers/STM32F4xx_HAL_Driver/Src/stm32f4xx_hal_rcc.c **** 
 538:Drivers/STM32F4xx_HAL_Driver/Src/stm32f4xx_hal_rcc.c ****         /* Wait till PLL is ready */
 539:Drivers/STM32F4xx_HAL_Driver/Src/stm32f4xx_hal_rcc.c ****         while(__HAL_RCC_GET_FLAG(RCC_FLAG_PLLRDY) != RESET)
 357              		.loc 1 539 15 view .LVU118
 358 016c 2C46     		mov	r4, r5
ARM GAS  /tmp/cc8pL1nJ.s 			page 17


 359              	.LVL21:
 536:Drivers/STM32F4xx_HAL_Driver/Src/stm32f4xx_hal_rcc.c **** 
 360              		.loc 1 536 21 view .LVU119
 361 016e 0546     		mov	r5, r0
 362              	.LVL22:
 363              		.loc 1 539 9 is_stmt 1 view .LVU120
 364              		.loc 1 539 14 is_stmt 0 view .LVU121
 365 0170 04E0     		b	.L59
 366              	.LVL23:
 367              	.L60:
 540:Drivers/STM32F4xx_HAL_Driver/Src/stm32f4xx_hal_rcc.c ****         {
 541:Drivers/STM32F4xx_HAL_Driver/Src/stm32f4xx_hal_rcc.c ****           if((HAL_GetTick() - tickstart ) > PLL_TIMEOUT_VALUE)
 368              		.loc 1 541 15 view .LVU122
 369 0172 FFF7FEFF 		bl	HAL_GetTick
 370              	.LVL24:
 371              		.loc 1 541 29 view .LVU123
 372 0176 401B     		subs	r0, r0, r5
 373              		.loc 1 541 13 view .LVU124
 374 0178 0228     		cmp	r0, #2
 375 017a 78D8     		bhi	.L17
 376              	.L59:
 377              		.loc 1 541 11 is_stmt 1 view .LVU125
 539:Drivers/STM32F4xx_HAL_Driver/Src/stm32f4xx_hal_rcc.c ****         {
 378              		.loc 1 539 15 is_stmt 0 view .LVU126
 379 017c 2368     		ldr	r3, [r4]
 539:Drivers/STM32F4xx_HAL_Driver/Src/stm32f4xx_hal_rcc.c ****         {
 380              		.loc 1 539 14 view .LVU127
 381 017e 9B01     		lsls	r3, r3, #6
 382 0180 F7D4     		bmi	.L60
 383              	.LVL25:
 384              	.L58:
 542:Drivers/STM32F4xx_HAL_Driver/Src/stm32f4xx_hal_rcc.c ****           {
 543:Drivers/STM32F4xx_HAL_Driver/Src/stm32f4xx_hal_rcc.c ****             return HAL_TIMEOUT;
 544:Drivers/STM32F4xx_HAL_Driver/Src/stm32f4xx_hal_rcc.c ****           }
 545:Drivers/STM32F4xx_HAL_Driver/Src/stm32f4xx_hal_rcc.c ****         }
 546:Drivers/STM32F4xx_HAL_Driver/Src/stm32f4xx_hal_rcc.c ****       }
 547:Drivers/STM32F4xx_HAL_Driver/Src/stm32f4xx_hal_rcc.c ****     }
 548:Drivers/STM32F4xx_HAL_Driver/Src/stm32f4xx_hal_rcc.c ****     else
 549:Drivers/STM32F4xx_HAL_Driver/Src/stm32f4xx_hal_rcc.c ****     {
 550:Drivers/STM32F4xx_HAL_Driver/Src/stm32f4xx_hal_rcc.c ****       return HAL_ERROR;
 551:Drivers/STM32F4xx_HAL_Driver/Src/stm32f4xx_hal_rcc.c ****     }
 552:Drivers/STM32F4xx_HAL_Driver/Src/stm32f4xx_hal_rcc.c ****   }
 553:Drivers/STM32F4xx_HAL_Driver/Src/stm32f4xx_hal_rcc.c ****   return HAL_OK;
 385              		.loc 1 553 10 view .LVU128
 386 0182 0020     		movs	r0, #0
 554:Drivers/STM32F4xx_HAL_Driver/Src/stm32f4xx_hal_rcc.c **** }
 387              		.loc 1 554 1 view .LVU129
 388 0184 02B0     		add	sp, sp, #8
 389              	.LCFI2:
 390              		.cfi_remember_state
 391              		.cfi_def_cfa_offset 24
 392              		@ sp needed
 393 0186 BDE8F081 		pop	{r4, r5, r6, r7, r8, pc}
 394              	.LVL26:
 395              	.L107:
 396              	.LCFI3:
 397              		.cfi_restore_state
ARM GAS  /tmp/cc8pL1nJ.s 			page 18


 368:Drivers/STM32F4xx_HAL_Driver/Src/stm32f4xx_hal_rcc.c **** 
 398              		.loc 1 368 5 is_stmt 1 view .LVU130
 371:Drivers/STM32F4xx_HAL_Driver/Src/stm32f4xx_hal_rcc.c ****     {
 399              		.loc 1 371 5 view .LVU131
 371:Drivers/STM32F4xx_HAL_Driver/Src/stm32f4xx_hal_rcc.c ****     {
 400              		.loc 1 371 7 is_stmt 0 view .LVU132
 401 018a 6369     		ldr	r3, [r4, #20]
 402 018c 03B3     		cbz	r3, .L29
 374:Drivers/STM32F4xx_HAL_Driver/Src/stm32f4xx_hal_rcc.c **** 
 403              		.loc 1 374 7 is_stmt 1 view .LVU133
 404 018e 534B     		ldr	r3, .L112+16
 380:Drivers/STM32F4xx_HAL_Driver/Src/stm32f4xx_hal_rcc.c ****       {
 405              		.loc 1 380 13 is_stmt 0 view .LVU134
 406 0190 4E4D     		ldr	r5, .L112
 374:Drivers/STM32F4xx_HAL_Driver/Src/stm32f4xx_hal_rcc.c **** 
 407              		.loc 1 374 7 view .LVU135
 408 0192 0122     		movs	r2, #1
 409 0194 1A60     		str	r2, [r3]
 377:Drivers/STM32F4xx_HAL_Driver/Src/stm32f4xx_hal_rcc.c **** 
 410              		.loc 1 377 7 is_stmt 1 view .LVU136
 377:Drivers/STM32F4xx_HAL_Driver/Src/stm32f4xx_hal_rcc.c **** 
 411              		.loc 1 377 19 is_stmt 0 view .LVU137
 412 0196 FFF7FEFF 		bl	HAL_GetTick
 413              	.LVL27:
 414 019a 0646     		mov	r6, r0
 415              	.LVL28:
 380:Drivers/STM32F4xx_HAL_Driver/Src/stm32f4xx_hal_rcc.c ****       {
 416              		.loc 1 380 7 is_stmt 1 view .LVU138
 380:Drivers/STM32F4xx_HAL_Driver/Src/stm32f4xx_hal_rcc.c ****       {
 417              		.loc 1 380 12 is_stmt 0 view .LVU139
 418 019c 04E0     		b	.L30
 419              	.LVL29:
 420              	.L31:
 382:Drivers/STM32F4xx_HAL_Driver/Src/stm32f4xx_hal_rcc.c ****         {
 421              		.loc 1 382 13 view .LVU140
 422 019e FFF7FEFF 		bl	HAL_GetTick
 423              	.LVL30:
 382:Drivers/STM32F4xx_HAL_Driver/Src/stm32f4xx_hal_rcc.c ****         {
 424              		.loc 1 382 27 view .LVU141
 425 01a2 801B     		subs	r0, r0, r6
 382:Drivers/STM32F4xx_HAL_Driver/Src/stm32f4xx_hal_rcc.c ****         {
 426              		.loc 1 382 11 view .LVU142
 427 01a4 0228     		cmp	r0, #2
 428 01a6 62D8     		bhi	.L17
 429              	.L30:
 382:Drivers/STM32F4xx_HAL_Driver/Src/stm32f4xx_hal_rcc.c ****         {
 430              		.loc 1 382 9 is_stmt 1 view .LVU143
 380:Drivers/STM32F4xx_HAL_Driver/Src/stm32f4xx_hal_rcc.c ****       {
 431              		.loc 1 380 13 is_stmt 0 view .LVU144
 432 01a8 6B6F     		ldr	r3, [r5, #116]
 380:Drivers/STM32F4xx_HAL_Driver/Src/stm32f4xx_hal_rcc.c ****       {
 433              		.loc 1 380 12 view .LVU145
 434 01aa 9B07     		lsls	r3, r3, #30
 435 01ac F7D5     		bpl	.L31
 436              	.L101:
 380:Drivers/STM32F4xx_HAL_Driver/Src/stm32f4xx_hal_rcc.c ****       {
 437              		.loc 1 380 12 view .LVU146
ARM GAS  /tmp/cc8pL1nJ.s 			page 19


 438 01ae 2368     		ldr	r3, [r4]
 439 01b0 8DE7     		b	.L28
 440              	.LVL31:
 441              	.L106:
 308:Drivers/STM32F4xx_HAL_Driver/Src/stm32f4xx_hal_rcc.c ****     {
 442              		.loc 1 308 68 view .LVU147
 443 01b2 5268     		ldr	r2, [r2, #4]
 308:Drivers/STM32F4xx_HAL_Driver/Src/stm32f4xx_hal_rcc.c ****     {
 444              		.loc 1 308 60 view .LVU148
 445 01b4 5602     		lsls	r6, r2, #9
 446 01b6 3FF56BAF 		bmi	.L21
 447              	.L20:
 311:Drivers/STM32F4xx_HAL_Driver/Src/stm32f4xx_hal_rcc.c ****       {
 448              		.loc 1 311 7 is_stmt 1 view .LVU149
 311:Drivers/STM32F4xx_HAL_Driver/Src/stm32f4xx_hal_rcc.c ****       {
 449              		.loc 1 311 11 is_stmt 0 view .LVU150
 450 01ba 444A     		ldr	r2, .L112
 451 01bc 1268     		ldr	r2, [r2]
 311:Drivers/STM32F4xx_HAL_Driver/Src/stm32f4xx_hal_rcc.c ****       {
 452              		.loc 1 311 9 view .LVU151
 453 01be 9507     		lsls	r5, r2, #30
 454 01c0 39D5     		bpl	.L22
 311:Drivers/STM32F4xx_HAL_Driver/Src/stm32f4xx_hal_rcc.c ****       {
 455              		.loc 1 311 57 discriminator 1 view .LVU152
 456 01c2 E268     		ldr	r2, [r4, #12]
 457 01c4 012A     		cmp	r2, #1
 458 01c6 36D0     		beq	.L22
 459              	.L9:
 244:Drivers/STM32F4xx_HAL_Driver/Src/stm32f4xx_hal_rcc.c ****   }
 460              		.loc 1 244 12 view .LVU153
 461 01c8 0120     		movs	r0, #1
 462              		.loc 1 554 1 view .LVU154
 463 01ca 02B0     		add	sp, sp, #8
 464              	.LCFI4:
 465              		.cfi_remember_state
 466              		.cfi_def_cfa_offset 24
 467              		@ sp needed
 468 01cc BDE8F081 		pop	{r4, r5, r6, r7, r8, pc}
 469              	.LVL32:
 470              	.L29:
 471              	.LCFI5:
 472              		.cfi_restore_state
 391:Drivers/STM32F4xx_HAL_Driver/Src/stm32f4xx_hal_rcc.c **** 
 473              		.loc 1 391 7 is_stmt 1 view .LVU155
 474 01d0 424A     		ldr	r2, .L112+16
 397:Drivers/STM32F4xx_HAL_Driver/Src/stm32f4xx_hal_rcc.c ****       {
 475              		.loc 1 397 13 is_stmt 0 view .LVU156
 476 01d2 3E4D     		ldr	r5, .L112
 391:Drivers/STM32F4xx_HAL_Driver/Src/stm32f4xx_hal_rcc.c **** 
 477              		.loc 1 391 7 view .LVU157
 478 01d4 1360     		str	r3, [r2]
 394:Drivers/STM32F4xx_HAL_Driver/Src/stm32f4xx_hal_rcc.c **** 
 479              		.loc 1 394 7 is_stmt 1 view .LVU158
 394:Drivers/STM32F4xx_HAL_Driver/Src/stm32f4xx_hal_rcc.c **** 
 480              		.loc 1 394 19 is_stmt 0 view .LVU159
 481 01d6 FFF7FEFF 		bl	HAL_GetTick
 482              	.LVL33:
ARM GAS  /tmp/cc8pL1nJ.s 			page 20


 483 01da 0646     		mov	r6, r0
 484              	.LVL34:
 397:Drivers/STM32F4xx_HAL_Driver/Src/stm32f4xx_hal_rcc.c ****       {
 485              		.loc 1 397 7 is_stmt 1 view .LVU160
 397:Drivers/STM32F4xx_HAL_Driver/Src/stm32f4xx_hal_rcc.c ****       {
 486              		.loc 1 397 12 is_stmt 0 view .LVU161
 487 01dc 04E0     		b	.L32
 488              	.LVL35:
 489              	.L33:
 399:Drivers/STM32F4xx_HAL_Driver/Src/stm32f4xx_hal_rcc.c ****         {
 490              		.loc 1 399 13 view .LVU162
 491 01de FFF7FEFF 		bl	HAL_GetTick
 492              	.LVL36:
 399:Drivers/STM32F4xx_HAL_Driver/Src/stm32f4xx_hal_rcc.c ****         {
 493              		.loc 1 399 27 view .LVU163
 494 01e2 801B     		subs	r0, r0, r6
 399:Drivers/STM32F4xx_HAL_Driver/Src/stm32f4xx_hal_rcc.c ****         {
 495              		.loc 1 399 11 view .LVU164
 496 01e4 0228     		cmp	r0, #2
 497 01e6 42D8     		bhi	.L17
 498              	.L32:
 399:Drivers/STM32F4xx_HAL_Driver/Src/stm32f4xx_hal_rcc.c ****         {
 499              		.loc 1 399 9 is_stmt 1 view .LVU165
 397:Drivers/STM32F4xx_HAL_Driver/Src/stm32f4xx_hal_rcc.c ****       {
 500              		.loc 1 397 13 is_stmt 0 view .LVU166
 501 01e8 6B6F     		ldr	r3, [r5, #116]
 397:Drivers/STM32F4xx_HAL_Driver/Src/stm32f4xx_hal_rcc.c ****       {
 502              		.loc 1 397 12 view .LVU167
 503 01ea 9F07     		lsls	r7, r3, #30
 504 01ec F7D4     		bmi	.L33
 505 01ee DEE7     		b	.L101
 506              	.LVL37:
 507              	.L62:
 508              	.LBB8:
 409:Drivers/STM32F4xx_HAL_Driver/Src/stm32f4xx_hal_rcc.c **** 
 509              		.loc 1 409 22 view .LVU168
 510 01f0 0026     		movs	r6, #0
 511 01f2 7FE7     		b	.L36
 512              	.LVL38:
 513              	.L103:
 409:Drivers/STM32F4xx_HAL_Driver/Src/stm32f4xx_hal_rcc.c **** 
 514              		.loc 1 409 22 view .LVU169
 515              	.LBE8:
 256:Drivers/STM32F4xx_HAL_Driver/Src/stm32f4xx_hal_rcc.c ****     {
 516              		.loc 1 256 68 view .LVU170
 517 01f4 4A68     		ldr	r2, [r1, #4]
 256:Drivers/STM32F4xx_HAL_Driver/Src/stm32f4xx_hal_rcc.c ****     {
 518              		.loc 1 256 60 view .LVU171
 519 01f6 5002     		lsls	r0, r2, #9
 520              	.LVL39:
 256:Drivers/STM32F4xx_HAL_Driver/Src/stm32f4xx_hal_rcc.c ****     {
 521              		.loc 1 256 60 view .LVU172
 522 01f8 7FF519AF 		bpl	.L8
 523              	.L7:
 258:Drivers/STM32F4xx_HAL_Driver/Src/stm32f4xx_hal_rcc.c ****       {
 524              		.loc 1 258 7 is_stmt 1 view .LVU173
 258:Drivers/STM32F4xx_HAL_Driver/Src/stm32f4xx_hal_rcc.c ****       {
ARM GAS  /tmp/cc8pL1nJ.s 			page 21


 525              		.loc 1 258 11 is_stmt 0 view .LVU174
 526 01fc 334A     		ldr	r2, .L112
 527 01fe 1268     		ldr	r2, [r2]
 258:Drivers/STM32F4xx_HAL_Driver/Src/stm32f4xx_hal_rcc.c ****       {
 528              		.loc 1 258 9 view .LVU175
 529 0200 9103     		lsls	r1, r2, #14
 530 0202 7FF537AF 		bpl	.L6
 258:Drivers/STM32F4xx_HAL_Driver/Src/stm32f4xx_hal_rcc.c ****       {
 531              		.loc 1 258 57 discriminator 1 view .LVU176
 532 0206 6268     		ldr	r2, [r4, #4]
 533 0208 002A     		cmp	r2, #0
 534 020a 7FF433AF 		bne	.L6
 535 020e DBE7     		b	.L9
 536              	.L104:
 266:Drivers/STM32F4xx_HAL_Driver/Src/stm32f4xx_hal_rcc.c **** 
 537              		.loc 1 266 7 is_stmt 1 discriminator 1 view .LVU177
 538 0210 2E4A     		ldr	r2, .L112
 539 0212 1368     		ldr	r3, [r2]
 540 0214 43F48033 		orr	r3, r3, #65536
 541 0218 1360     		str	r3, [r2]
 269:Drivers/STM32F4xx_HAL_Driver/Src/stm32f4xx_hal_rcc.c ****       {
 542              		.loc 1 269 7 discriminator 1 view .LVU178
 543              	.L11:
 272:Drivers/STM32F4xx_HAL_Driver/Src/stm32f4xx_hal_rcc.c **** 
 544              		.loc 1 272 9 view .LVU179
 272:Drivers/STM32F4xx_HAL_Driver/Src/stm32f4xx_hal_rcc.c **** 
 545              		.loc 1 272 21 is_stmt 0 view .LVU180
 546 021a FFF7FEFF 		bl	HAL_GetTick
 547              	.LVL40:
 275:Drivers/STM32F4xx_HAL_Driver/Src/stm32f4xx_hal_rcc.c ****         {
 548              		.loc 1 275 15 view .LVU181
 549 021e 2B4D     		ldr	r5, .L112
 272:Drivers/STM32F4xx_HAL_Driver/Src/stm32f4xx_hal_rcc.c **** 
 550              		.loc 1 272 21 view .LVU182
 551 0220 0646     		mov	r6, r0
 552              	.LVL41:
 275:Drivers/STM32F4xx_HAL_Driver/Src/stm32f4xx_hal_rcc.c ****         {
 553              		.loc 1 275 9 is_stmt 1 view .LVU183
 275:Drivers/STM32F4xx_HAL_Driver/Src/stm32f4xx_hal_rcc.c ****         {
 554              		.loc 1 275 14 is_stmt 0 view .LVU184
 555 0222 04E0     		b	.L14
 556              	.LVL42:
 557              	.L15:
 277:Drivers/STM32F4xx_HAL_Driver/Src/stm32f4xx_hal_rcc.c ****           {
 558              		.loc 1 277 15 view .LVU185
 559 0224 FFF7FEFF 		bl	HAL_GetTick
 560              	.LVL43:
 277:Drivers/STM32F4xx_HAL_Driver/Src/stm32f4xx_hal_rcc.c ****           {
 561              		.loc 1 277 29 view .LVU186
 562 0228 801B     		subs	r0, r0, r6
 277:Drivers/STM32F4xx_HAL_Driver/Src/stm32f4xx_hal_rcc.c ****           {
 563              		.loc 1 277 13 view .LVU187
 564 022a 6428     		cmp	r0, #100
 565 022c 1FD8     		bhi	.L17
 566              	.L14:
 277:Drivers/STM32F4xx_HAL_Driver/Src/stm32f4xx_hal_rcc.c ****           {
 567              		.loc 1 277 11 is_stmt 1 view .LVU188
ARM GAS  /tmp/cc8pL1nJ.s 			page 22


 275:Drivers/STM32F4xx_HAL_Driver/Src/stm32f4xx_hal_rcc.c ****         {
 568              		.loc 1 275 15 is_stmt 0 view .LVU189
 569 022e 2B68     		ldr	r3, [r5]
 275:Drivers/STM32F4xx_HAL_Driver/Src/stm32f4xx_hal_rcc.c ****         {
 570              		.loc 1 275 14 view .LVU190
 571 0230 9A03     		lsls	r2, r3, #14
 572 0232 F7D5     		bpl	.L15
 573 0234 1DE7     		b	.L100
 574              	.LVL44:
 575              	.L22:
 319:Drivers/STM32F4xx_HAL_Driver/Src/stm32f4xx_hal_rcc.c ****       }
 576              		.loc 1 319 9 is_stmt 1 view .LVU191
 577 0236 2549     		ldr	r1, .L112
 578 0238 2069     		ldr	r0, [r4, #16]
 579 023a 0A68     		ldr	r2, [r1]
 580 023c 22F0F802 		bic	r2, r2, #248
 581 0240 42EAC002 		orr	r2, r2, r0, lsl #3
 582 0244 0A60     		str	r2, [r1]
 365:Drivers/STM32F4xx_HAL_Driver/Src/stm32f4xx_hal_rcc.c ****   {
 583              		.loc 1 365 3 view .LVU192
 365:Drivers/STM32F4xx_HAL_Driver/Src/stm32f4xx_hal_rcc.c ****   {
 584              		.loc 1 365 5 is_stmt 0 view .LVU193
 585 0246 1A07     		lsls	r2, r3, #28
 586 0248 7FF541AF 		bpl	.L28
 587 024c 9DE7     		b	.L107
 588              	.LVL45:
 589              	.L37:
 590              	.LBB9:
 425:Drivers/STM32F4xx_HAL_Driver/Src/stm32f4xx_hal_rcc.c **** 
 591              		.loc 1 425 7 is_stmt 1 view .LVU194
 592 024e 2B68     		ldr	r3, [r5]
 593 0250 43F48073 		orr	r3, r3, #256
 594 0254 2B60     		str	r3, [r5]
 428:Drivers/STM32F4xx_HAL_Driver/Src/stm32f4xx_hal_rcc.c **** 
 595              		.loc 1 428 7 view .LVU195
 428:Drivers/STM32F4xx_HAL_Driver/Src/stm32f4xx_hal_rcc.c **** 
 596              		.loc 1 428 19 is_stmt 0 view .LVU196
 597 0256 FFF7FEFF 		bl	HAL_GetTick
 598              	.LVL46:
 599 025a 0746     		mov	r7, r0
 600              	.LVL47:
 430:Drivers/STM32F4xx_HAL_Driver/Src/stm32f4xx_hal_rcc.c ****       {
 601              		.loc 1 430 7 is_stmt 1 view .LVU197
 602              	.L40:
 432:Drivers/STM32F4xx_HAL_Driver/Src/stm32f4xx_hal_rcc.c ****         {
 603              		.loc 1 432 9 view .LVU198
 430:Drivers/STM32F4xx_HAL_Driver/Src/stm32f4xx_hal_rcc.c ****       {
 604              		.loc 1 430 13 is_stmt 0 view .LVU199
 605 025c 2B68     		ldr	r3, [r5]
 430:Drivers/STM32F4xx_HAL_Driver/Src/stm32f4xx_hal_rcc.c ****       {
 606              		.loc 1 430 12 view .LVU200
 607 025e DA05     		lsls	r2, r3, #23
 608 0260 3FF54DAF 		bmi	.L42
 432:Drivers/STM32F4xx_HAL_Driver/Src/stm32f4xx_hal_rcc.c ****         {
 609              		.loc 1 432 13 view .LVU201
 610 0264 FFF7FEFF 		bl	HAL_GetTick
 611              	.LVL48:
ARM GAS  /tmp/cc8pL1nJ.s 			page 23


 432:Drivers/STM32F4xx_HAL_Driver/Src/stm32f4xx_hal_rcc.c ****         {
 612              		.loc 1 432 27 view .LVU202
 613 0268 C01B     		subs	r0, r0, r7
 432:Drivers/STM32F4xx_HAL_Driver/Src/stm32f4xx_hal_rcc.c ****         {
 614              		.loc 1 432 11 view .LVU203
 615 026a 0228     		cmp	r0, #2
 616 026c F6D9     		bls	.L40
 617              	.LVL49:
 618              	.L17:
 432:Drivers/STM32F4xx_HAL_Driver/Src/stm32f4xx_hal_rcc.c ****         {
 619              		.loc 1 432 11 view .LVU204
 620              	.LBE9:
 279:Drivers/STM32F4xx_HAL_Driver/Src/stm32f4xx_hal_rcc.c ****           }
 621              		.loc 1 279 20 view .LVU205
 622 026e 0320     		movs	r0, #3
 623              		.loc 1 554 1 view .LVU206
 624 0270 02B0     		add	sp, sp, #8
 625              	.LCFI6:
 626              		.cfi_remember_state
 627              		.cfi_def_cfa_offset 24
 628              		@ sp needed
 629 0272 BDE8F081 		pop	{r4, r5, r6, r7, r8, pc}
 630              	.LVL50:
 631              	.L108:
 632              	.LCFI7:
 633              		.cfi_restore_state
 634              	.LBB10:
 440:Drivers/STM32F4xx_HAL_Driver/Src/stm32f4xx_hal_rcc.c ****     /* Check the LSE State */
 635              		.loc 1 440 5 is_stmt 1 discriminator 1 view .LVU207
 636 0276 154A     		ldr	r2, .L112
 637 0278 136F     		ldr	r3, [r2, #112]
 638 027a 43F00103 		orr	r3, r3, #1
 639 027e 1367     		str	r3, [r2, #112]
 640              	.L43:
 442:Drivers/STM32F4xx_HAL_Driver/Src/stm32f4xx_hal_rcc.c ****     {
 641              		.loc 1 442 5 view .LVU208
 445:Drivers/STM32F4xx_HAL_Driver/Src/stm32f4xx_hal_rcc.c **** 
 642              		.loc 1 445 7 view .LVU209
 445:Drivers/STM32F4xx_HAL_Driver/Src/stm32f4xx_hal_rcc.c **** 
 643              		.loc 1 445 19 is_stmt 0 view .LVU210
 644 0280 FFF7FEFF 		bl	HAL_GetTick
 645              	.LVL51:
 448:Drivers/STM32F4xx_HAL_Driver/Src/stm32f4xx_hal_rcc.c ****       {
 646              		.loc 1 448 13 view .LVU211
 647 0284 114D     		ldr	r5, .L112
 445:Drivers/STM32F4xx_HAL_Driver/Src/stm32f4xx_hal_rcc.c **** 
 648              		.loc 1 445 19 view .LVU212
 649 0286 8046     		mov	r8, r0
 650              	.LVL52:
 448:Drivers/STM32F4xx_HAL_Driver/Src/stm32f4xx_hal_rcc.c ****       {
 651              		.loc 1 448 7 is_stmt 1 view .LVU213
 450:Drivers/STM32F4xx_HAL_Driver/Src/stm32f4xx_hal_rcc.c ****         {
 652              		.loc 1 450 11 is_stmt 0 view .LVU214
 653 0288 41F28837 		movw	r7, #5000
 448:Drivers/STM32F4xx_HAL_Driver/Src/stm32f4xx_hal_rcc.c ****       {
 654              		.loc 1 448 12 view .LVU215
 655 028c 05E0     		b	.L61
ARM GAS  /tmp/cc8pL1nJ.s 			page 24


 656              	.LVL53:
 657              	.L46:
 450:Drivers/STM32F4xx_HAL_Driver/Src/stm32f4xx_hal_rcc.c ****         {
 658              		.loc 1 450 13 view .LVU216
 659 028e FFF7FEFF 		bl	HAL_GetTick
 660              	.LVL54:
 450:Drivers/STM32F4xx_HAL_Driver/Src/stm32f4xx_hal_rcc.c ****         {
 661              		.loc 1 450 27 view .LVU217
 662 0292 A0EB0800 		sub	r0, r0, r8
 450:Drivers/STM32F4xx_HAL_Driver/Src/stm32f4xx_hal_rcc.c ****         {
 663              		.loc 1 450 11 view .LVU218
 664 0296 B842     		cmp	r0, r7
 665 0298 E9D8     		bhi	.L17
 666              	.L61:
 450:Drivers/STM32F4xx_HAL_Driver/Src/stm32f4xx_hal_rcc.c ****         {
 667              		.loc 1 450 9 is_stmt 1 view .LVU219
 448:Drivers/STM32F4xx_HAL_Driver/Src/stm32f4xx_hal_rcc.c ****       {
 668              		.loc 1 448 13 is_stmt 0 view .LVU220
 669 029a 2B6F     		ldr	r3, [r5, #112]
 448:Drivers/STM32F4xx_HAL_Driver/Src/stm32f4xx_hal_rcc.c ****       {
 670              		.loc 1 448 12 view .LVU221
 671 029c 9B07     		lsls	r3, r3, #30
 672 029e F6D5     		bpl	.L46
 472:Drivers/STM32F4xx_HAL_Driver/Src/stm32f4xx_hal_rcc.c ****     {
 673              		.loc 1 472 5 is_stmt 1 view .LVU222
 472:Drivers/STM32F4xx_HAL_Driver/Src/stm32f4xx_hal_rcc.c ****     {
 674              		.loc 1 472 7 is_stmt 0 view .LVU223
 675 02a0 002E     		cmp	r6, #0
 676 02a2 3FF452AF 		beq	.L35
 677 02a6 27E0     		b	.L110
 678              	.LVL55:
 679              	.L23:
 472:Drivers/STM32F4xx_HAL_Driver/Src/stm32f4xx_hal_rcc.c ****     {
 680              		.loc 1 472 7 view .LVU224
 681              	.LBE10:
 348:Drivers/STM32F4xx_HAL_Driver/Src/stm32f4xx_hal_rcc.c **** 
 682              		.loc 1 348 9 is_stmt 1 view .LVU225
 683 02a8 094A     		ldr	r2, .L112+4
 354:Drivers/STM32F4xx_HAL_Driver/Src/stm32f4xx_hal_rcc.c ****         {
 684              		.loc 1 354 15 is_stmt 0 view .LVU226
 685 02aa 084D     		ldr	r5, .L112
 348:Drivers/STM32F4xx_HAL_Driver/Src/stm32f4xx_hal_rcc.c **** 
 686              		.loc 1 348 9 view .LVU227
 687 02ac 1360     		str	r3, [r2]
 351:Drivers/STM32F4xx_HAL_Driver/Src/stm32f4xx_hal_rcc.c **** 
 688              		.loc 1 351 9 is_stmt 1 view .LVU228
 351:Drivers/STM32F4xx_HAL_Driver/Src/stm32f4xx_hal_rcc.c **** 
 689              		.loc 1 351 21 is_stmt 0 view .LVU229
 690 02ae FFF7FEFF 		bl	HAL_GetTick
 691              	.LVL56:
 692 02b2 0646     		mov	r6, r0
 693              	.LVL57:
 354:Drivers/STM32F4xx_HAL_Driver/Src/stm32f4xx_hal_rcc.c ****         {
 694              		.loc 1 354 9 is_stmt 1 view .LVU230
 354:Drivers/STM32F4xx_HAL_Driver/Src/stm32f4xx_hal_rcc.c ****         {
 695              		.loc 1 354 14 is_stmt 0 view .LVU231
 696 02b4 04E0     		b	.L26
ARM GAS  /tmp/cc8pL1nJ.s 			page 25


 697              	.LVL58:
 698              	.L27:
 356:Drivers/STM32F4xx_HAL_Driver/Src/stm32f4xx_hal_rcc.c ****           {
 699              		.loc 1 356 15 view .LVU232
 700 02b6 FFF7FEFF 		bl	HAL_GetTick
 701              	.LVL59:
 356:Drivers/STM32F4xx_HAL_Driver/Src/stm32f4xx_hal_rcc.c ****           {
 702              		.loc 1 356 29 view .LVU233
 703 02ba 801B     		subs	r0, r0, r6
 356:Drivers/STM32F4xx_HAL_Driver/Src/stm32f4xx_hal_rcc.c ****           {
 704              		.loc 1 356 13 view .LVU234
 705 02bc 0228     		cmp	r0, #2
 706 02be D6D8     		bhi	.L17
 707              	.L26:
 356:Drivers/STM32F4xx_HAL_Driver/Src/stm32f4xx_hal_rcc.c ****           {
 708              		.loc 1 356 11 is_stmt 1 view .LVU235
 354:Drivers/STM32F4xx_HAL_Driver/Src/stm32f4xx_hal_rcc.c ****         {
 709              		.loc 1 354 15 is_stmt 0 view .LVU236
 710 02c0 2B68     		ldr	r3, [r5]
 354:Drivers/STM32F4xx_HAL_Driver/Src/stm32f4xx_hal_rcc.c ****         {
 711              		.loc 1 354 14 view .LVU237
 712 02c2 9907     		lsls	r1, r3, #30
 713 02c4 F7D4     		bmi	.L27
 714 02c6 2368     		ldr	r3, [r4]
 715 02c8 FFE6     		b	.L19
 716              	.L113:
 717 02ca 00BF     		.align	2
 718              	.L112:
 719 02cc 00380240 		.word	1073887232
 720 02d0 00004742 		.word	1111949312
 721 02d4 00700040 		.word	1073770496
 722 02d8 60004742 		.word	1111949408
 723 02dc 800E4742 		.word	1111953024
 724              	.LVL60:
 725              	.L102:
 726              	.LCFI8:
 727              		.cfi_def_cfa_offset 0
 728              		.cfi_restore 4
 729              		.cfi_restore 5
 730              		.cfi_restore 6
 731              		.cfi_restore 7
 732              		.cfi_restore 8
 733              		.cfi_restore 14
 244:Drivers/STM32F4xx_HAL_Driver/Src/stm32f4xx_hal_rcc.c ****   }
 734              		.loc 1 244 12 view .LVU238
 735 02e0 0120     		movs	r0, #1
 736              	.LVL61:
 737              		.loc 1 554 1 view .LVU239
 738 02e2 7047     		bx	lr
 739              	.LVL62:
 740              	.L105:
 741              	.LCFI9:
 742              		.cfi_def_cfa_offset 32
 743              		.cfi_offset 4, -24
 744              		.cfi_offset 5, -20
 745              		.cfi_offset 6, -16
 746              		.cfi_offset 7, -12
ARM GAS  /tmp/cc8pL1nJ.s 			page 26


 747              		.cfi_offset 8, -8
 748              		.cfi_offset 14, -4
 266:Drivers/STM32F4xx_HAL_Driver/Src/stm32f4xx_hal_rcc.c **** 
 749              		.loc 1 266 7 is_stmt 1 discriminator 3 view .LVU240
 750 02e4 224B     		ldr	r3, .L114
 751 02e6 1A68     		ldr	r2, [r3]
 752 02e8 42F48022 		orr	r2, r2, #262144
 753 02ec 1A60     		str	r2, [r3]
 266:Drivers/STM32F4xx_HAL_Driver/Src/stm32f4xx_hal_rcc.c **** 
 754              		.loc 1 266 7 discriminator 3 view .LVU241
 755 02ee 1A68     		ldr	r2, [r3]
 756 02f0 42F48032 		orr	r2, r2, #65536
 757 02f4 1A60     		str	r2, [r3]
 269:Drivers/STM32F4xx_HAL_Driver/Src/stm32f4xx_hal_rcc.c ****       {
 758              		.loc 1 269 7 discriminator 3 view .LVU242
 759 02f6 90E7     		b	.L11
 760              	.LVL63:
 761              	.L110:
 762              	.LBB11:
 474:Drivers/STM32F4xx_HAL_Driver/Src/stm32f4xx_hal_rcc.c ****     }
 763              		.loc 1 474 7 view .LVU243
 764 02f8 1D4A     		ldr	r2, .L114
 765 02fa 136C     		ldr	r3, [r2, #64]
 766 02fc 23F08053 		bic	r3, r3, #268435456
 767 0300 1364     		str	r3, [r2, #64]
 768 0302 22E7     		b	.L35
 769              	.LVL64:
 770              	.L111:
 474:Drivers/STM32F4xx_HAL_Driver/Src/stm32f4xx_hal_rcc.c ****     }
 771              		.loc 1 474 7 is_stmt 0 view .LVU244
 772              	.LBE11:
 488:Drivers/STM32F4xx_HAL_Driver/Src/stm32f4xx_hal_rcc.c ****         assert_param(IS_RCC_PLLM_VALUE(RCC_OscInitStruct->PLL.PLLM));
 773              		.loc 1 488 9 is_stmt 1 view .LVU245
 489:Drivers/STM32F4xx_HAL_Driver/Src/stm32f4xx_hal_rcc.c ****         assert_param(IS_RCC_PLLN_VALUE(RCC_OscInitStruct->PLL.PLLN));
 774              		.loc 1 489 9 view .LVU246
 490:Drivers/STM32F4xx_HAL_Driver/Src/stm32f4xx_hal_rcc.c ****         assert_param(IS_RCC_PLLP_VALUE(RCC_OscInitStruct->PLL.PLLP));
 775              		.loc 1 490 9 view .LVU247
 491:Drivers/STM32F4xx_HAL_Driver/Src/stm32f4xx_hal_rcc.c ****         assert_param(IS_RCC_PLLQ_VALUE(RCC_OscInitStruct->PLL.PLLQ));
 776              		.loc 1 491 9 view .LVU248
 492:Drivers/STM32F4xx_HAL_Driver/Src/stm32f4xx_hal_rcc.c **** 
 777              		.loc 1 492 9 view .LVU249
 495:Drivers/STM32F4xx_HAL_Driver/Src/stm32f4xx_hal_rcc.c **** 
 778              		.loc 1 495 9 view .LVU250
 498:Drivers/STM32F4xx_HAL_Driver/Src/stm32f4xx_hal_rcc.c **** 
 779              		.loc 1 498 9 view .LVU251
 498:Drivers/STM32F4xx_HAL_Driver/Src/stm32f4xx_hal_rcc.c **** 
 780              		.loc 1 498 21 is_stmt 0 view .LVU252
 781 0304 FFF7FEFF 		bl	HAL_GetTick
 782              	.LVL65:
 783 0308 0646     		mov	r6, r0
 784              	.LVL66:
 501:Drivers/STM32F4xx_HAL_Driver/Src/stm32f4xx_hal_rcc.c ****         {
 785              		.loc 1 501 9 is_stmt 1 view .LVU253
 501:Drivers/STM32F4xx_HAL_Driver/Src/stm32f4xx_hal_rcc.c ****         {
 786              		.loc 1 501 14 is_stmt 0 view .LVU254
 787 030a 04E0     		b	.L54
 788              	.LVL67:
ARM GAS  /tmp/cc8pL1nJ.s 			page 27


 789              	.L55:
 503:Drivers/STM32F4xx_HAL_Driver/Src/stm32f4xx_hal_rcc.c ****           {
 790              		.loc 1 503 15 view .LVU255
 791 030c FFF7FEFF 		bl	HAL_GetTick
 792              	.LVL68:
 503:Drivers/STM32F4xx_HAL_Driver/Src/stm32f4xx_hal_rcc.c ****           {
 793              		.loc 1 503 29 view .LVU256
 794 0310 801B     		subs	r0, r0, r6
 503:Drivers/STM32F4xx_HAL_Driver/Src/stm32f4xx_hal_rcc.c ****           {
 795              		.loc 1 503 13 view .LVU257
 796 0312 0228     		cmp	r0, #2
 797 0314 ABD8     		bhi	.L17
 798              	.L54:
 503:Drivers/STM32F4xx_HAL_Driver/Src/stm32f4xx_hal_rcc.c ****           {
 799              		.loc 1 503 11 is_stmt 1 view .LVU258
 501:Drivers/STM32F4xx_HAL_Driver/Src/stm32f4xx_hal_rcc.c ****         {
 800              		.loc 1 501 15 is_stmt 0 view .LVU259
 801 0316 2B68     		ldr	r3, [r5]
 501:Drivers/STM32F4xx_HAL_Driver/Src/stm32f4xx_hal_rcc.c ****         {
 802              		.loc 1 501 14 view .LVU260
 803 0318 9901     		lsls	r1, r3, #6
 804 031a F7D4     		bmi	.L55
 510:Drivers/STM32F4xx_HAL_Driver/Src/stm32f4xx_hal_rcc.c ****                                  RCC_OscInitStruct->PLL.PLLM                                       
 805              		.loc 1 510 9 is_stmt 1 view .LVU261
 806 031c D4E90736 		ldrd	r3, r6, [r4, #28]
 807              	.LVL69:
 510:Drivers/STM32F4xx_HAL_Driver/Src/stm32f4xx_hal_rcc.c ****                                  RCC_OscInitStruct->PLL.PLLM                                       
 808              		.loc 1 510 9 is_stmt 0 view .LVU262
 809 0320 D4E90902 		ldrd	r0, r2, [r4, #36]
 810 0324 E16A     		ldr	r1, [r4, #44]
 522:Drivers/STM32F4xx_HAL_Driver/Src/stm32f4xx_hal_rcc.c ****         {
 811              		.loc 1 522 15 view .LVU263
 812 0326 124C     		ldr	r4, .L114
 813              	.LVL70:
 510:Drivers/STM32F4xx_HAL_Driver/Src/stm32f4xx_hal_rcc.c ****                                  RCC_OscInitStruct->PLL.PLLM                                       
 814              		.loc 1 510 9 view .LVU264
 815 0328 3343     		orrs	r3, r3, r6
 816 032a 43EA8013 		orr	r3, r3, r0, lsl #6
 817 032e 5208     		lsrs	r2, r2, #1
 818 0330 43EA0163 		orr	r3, r3, r1, lsl #24
 819 0334 013A     		subs	r2, r2, #1
 516:Drivers/STM32F4xx_HAL_Driver/Src/stm32f4xx_hal_rcc.c **** 
 820              		.loc 1 516 9 view .LVU265
 821 0336 0F49     		ldr	r1, .L114+4
 510:Drivers/STM32F4xx_HAL_Driver/Src/stm32f4xx_hal_rcc.c ****                                  RCC_OscInitStruct->PLL.PLLM                                       
 822              		.loc 1 510 9 view .LVU266
 823 0338 43EA0243 		orr	r3, r3, r2, lsl #16
 516:Drivers/STM32F4xx_HAL_Driver/Src/stm32f4xx_hal_rcc.c **** 
 824              		.loc 1 516 9 view .LVU267
 825 033c 0122     		movs	r2, #1
 510:Drivers/STM32F4xx_HAL_Driver/Src/stm32f4xx_hal_rcc.c ****                                  RCC_OscInitStruct->PLL.PLLM                                       
 826              		.loc 1 510 9 view .LVU268
 827 033e 6B60     		str	r3, [r5, #4]
 516:Drivers/STM32F4xx_HAL_Driver/Src/stm32f4xx_hal_rcc.c **** 
 828              		.loc 1 516 9 is_stmt 1 view .LVU269
 829 0340 0A60     		str	r2, [r1]
 519:Drivers/STM32F4xx_HAL_Driver/Src/stm32f4xx_hal_rcc.c **** 
ARM GAS  /tmp/cc8pL1nJ.s 			page 28


 830              		.loc 1 519 9 view .LVU270
 519:Drivers/STM32F4xx_HAL_Driver/Src/stm32f4xx_hal_rcc.c **** 
 831              		.loc 1 519 21 is_stmt 0 view .LVU271
 832 0342 FFF7FEFF 		bl	HAL_GetTick
 833              	.LVL71:
 834 0346 0546     		mov	r5, r0
 835              	.LVL72:
 522:Drivers/STM32F4xx_HAL_Driver/Src/stm32f4xx_hal_rcc.c ****         {
 836              		.loc 1 522 9 is_stmt 1 view .LVU272
 522:Drivers/STM32F4xx_HAL_Driver/Src/stm32f4xx_hal_rcc.c ****         {
 837              		.loc 1 522 14 is_stmt 0 view .LVU273
 838 0348 04E0     		b	.L56
 839              	.LVL73:
 840              	.L57:
 524:Drivers/STM32F4xx_HAL_Driver/Src/stm32f4xx_hal_rcc.c ****           {
 841              		.loc 1 524 15 view .LVU274
 842 034a FFF7FEFF 		bl	HAL_GetTick
 843              	.LVL74:
 524:Drivers/STM32F4xx_HAL_Driver/Src/stm32f4xx_hal_rcc.c ****           {
 844              		.loc 1 524 29 view .LVU275
 845 034e 401B     		subs	r0, r0, r5
 524:Drivers/STM32F4xx_HAL_Driver/Src/stm32f4xx_hal_rcc.c ****           {
 846              		.loc 1 524 13 view .LVU276
 847 0350 0228     		cmp	r0, #2
 848 0352 8CD8     		bhi	.L17
 849              	.L56:
 524:Drivers/STM32F4xx_HAL_Driver/Src/stm32f4xx_hal_rcc.c ****           {
 850              		.loc 1 524 11 is_stmt 1 view .LVU277
 522:Drivers/STM32F4xx_HAL_Driver/Src/stm32f4xx_hal_rcc.c ****         {
 851              		.loc 1 522 15 is_stmt 0 view .LVU278
 852 0354 2368     		ldr	r3, [r4]
 522:Drivers/STM32F4xx_HAL_Driver/Src/stm32f4xx_hal_rcc.c ****         {
 853              		.loc 1 522 14 view .LVU279
 854 0356 9A01     		lsls	r2, r3, #6
 855 0358 F7D5     		bpl	.L57
 856 035a 12E7     		b	.L58
 857              	.LVL75:
 858              	.L109:
 859              	.LBB12:
 440:Drivers/STM32F4xx_HAL_Driver/Src/stm32f4xx_hal_rcc.c ****     /* Check the LSE State */
 860              		.loc 1 440 5 is_stmt 1 discriminator 3 view .LVU280
 861 035c 044B     		ldr	r3, .L114
 862 035e 1A6F     		ldr	r2, [r3, #112]
 863 0360 42F00402 		orr	r2, r2, #4
 864 0364 1A67     		str	r2, [r3, #112]
 440:Drivers/STM32F4xx_HAL_Driver/Src/stm32f4xx_hal_rcc.c ****     /* Check the LSE State */
 865              		.loc 1 440 5 discriminator 3 view .LVU281
 866 0366 1A6F     		ldr	r2, [r3, #112]
 867 0368 42F00102 		orr	r2, r2, #1
 868 036c 1A67     		str	r2, [r3, #112]
 869 036e 87E7     		b	.L43
 870              	.L115:
 871              		.align	2
 872              	.L114:
 873 0370 00380240 		.word	1073887232
 874 0374 60004742 		.word	1111949408
 875              	.LBE12:
ARM GAS  /tmp/cc8pL1nJ.s 			page 29


 876              		.cfi_endproc
 877              	.LFE127:
 879              		.section	.text.HAL_RCC_MCOConfig,"ax",%progbits
 880              		.align	1
 881              		.p2align 2,,3
 882              		.global	HAL_RCC_MCOConfig
 883              		.syntax unified
 884              		.thumb
 885              		.thumb_func
 886              		.fpu fpv4-sp-d16
 888              	HAL_RCC_MCOConfig:
 889              	.LVL76:
 890              	.LFB129:
 555:Drivers/STM32F4xx_HAL_Driver/Src/stm32f4xx_hal_rcc.c **** 
 556:Drivers/STM32F4xx_HAL_Driver/Src/stm32f4xx_hal_rcc.c **** /**
 557:Drivers/STM32F4xx_HAL_Driver/Src/stm32f4xx_hal_rcc.c ****   * @brief  Initializes the CPU, AHB and APB busses clocks according to the specified
 558:Drivers/STM32F4xx_HAL_Driver/Src/stm32f4xx_hal_rcc.c ****   *         parameters in the RCC_ClkInitStruct.
 559:Drivers/STM32F4xx_HAL_Driver/Src/stm32f4xx_hal_rcc.c ****   * @param  RCC_ClkInitStruct pointer to an RCC_OscInitTypeDef structure that
 560:Drivers/STM32F4xx_HAL_Driver/Src/stm32f4xx_hal_rcc.c ****   *         contains the configuration information for the RCC peripheral.
 561:Drivers/STM32F4xx_HAL_Driver/Src/stm32f4xx_hal_rcc.c ****   * @param  FLatency FLASH Latency, this parameter depend on device selected
 562:Drivers/STM32F4xx_HAL_Driver/Src/stm32f4xx_hal_rcc.c ****   *
 563:Drivers/STM32F4xx_HAL_Driver/Src/stm32f4xx_hal_rcc.c ****   * @note   The SystemCoreClock CMSIS variable is used to store System Clock Frequency
 564:Drivers/STM32F4xx_HAL_Driver/Src/stm32f4xx_hal_rcc.c ****   *         and updated by HAL_RCC_GetHCLKFreq() function called within this function
 565:Drivers/STM32F4xx_HAL_Driver/Src/stm32f4xx_hal_rcc.c ****   *
 566:Drivers/STM32F4xx_HAL_Driver/Src/stm32f4xx_hal_rcc.c ****   * @note   The HSI is used (enabled by hardware) as system clock source after
 567:Drivers/STM32F4xx_HAL_Driver/Src/stm32f4xx_hal_rcc.c ****   *         startup from Reset, wake-up from STOP and STANDBY mode, or in case
 568:Drivers/STM32F4xx_HAL_Driver/Src/stm32f4xx_hal_rcc.c ****   *         of failure of the HSE used directly or indirectly as system clock
 569:Drivers/STM32F4xx_HAL_Driver/Src/stm32f4xx_hal_rcc.c ****   *         (if the Clock Security System CSS is enabled).
 570:Drivers/STM32F4xx_HAL_Driver/Src/stm32f4xx_hal_rcc.c ****   *
 571:Drivers/STM32F4xx_HAL_Driver/Src/stm32f4xx_hal_rcc.c ****   * @note   A switch from one clock source to another occurs only if the target
 572:Drivers/STM32F4xx_HAL_Driver/Src/stm32f4xx_hal_rcc.c ****   *         clock source is ready (clock stable after startup delay or PLL locked).
 573:Drivers/STM32F4xx_HAL_Driver/Src/stm32f4xx_hal_rcc.c ****   *         If a clock source which is not yet ready is selected, the switch will
 574:Drivers/STM32F4xx_HAL_Driver/Src/stm32f4xx_hal_rcc.c ****   *         occur when the clock source will be ready.
 575:Drivers/STM32F4xx_HAL_Driver/Src/stm32f4xx_hal_rcc.c ****   *
 576:Drivers/STM32F4xx_HAL_Driver/Src/stm32f4xx_hal_rcc.c ****   * @note   Depending on the device voltage range, the software has to set correctly
 577:Drivers/STM32F4xx_HAL_Driver/Src/stm32f4xx_hal_rcc.c ****   *         HPRE[3:0] bits to ensure that HCLK not exceed the maximum allowed frequency
 578:Drivers/STM32F4xx_HAL_Driver/Src/stm32f4xx_hal_rcc.c ****   *         (for more details refer to section above "Initialization/de-initialization functions")
 579:Drivers/STM32F4xx_HAL_Driver/Src/stm32f4xx_hal_rcc.c ****   * @retval None
 580:Drivers/STM32F4xx_HAL_Driver/Src/stm32f4xx_hal_rcc.c ****   */
 581:Drivers/STM32F4xx_HAL_Driver/Src/stm32f4xx_hal_rcc.c **** HAL_StatusTypeDef HAL_RCC_ClockConfig(RCC_ClkInitTypeDef  *RCC_ClkInitStruct, uint32_t FLatency)
 582:Drivers/STM32F4xx_HAL_Driver/Src/stm32f4xx_hal_rcc.c **** {
 583:Drivers/STM32F4xx_HAL_Driver/Src/stm32f4xx_hal_rcc.c ****   uint32_t tickstart;
 584:Drivers/STM32F4xx_HAL_Driver/Src/stm32f4xx_hal_rcc.c **** 
 585:Drivers/STM32F4xx_HAL_Driver/Src/stm32f4xx_hal_rcc.c ****   /* Check Null pointer */
 586:Drivers/STM32F4xx_HAL_Driver/Src/stm32f4xx_hal_rcc.c ****   if(RCC_ClkInitStruct == NULL)
 587:Drivers/STM32F4xx_HAL_Driver/Src/stm32f4xx_hal_rcc.c ****   {
 588:Drivers/STM32F4xx_HAL_Driver/Src/stm32f4xx_hal_rcc.c ****     return HAL_ERROR;
 589:Drivers/STM32F4xx_HAL_Driver/Src/stm32f4xx_hal_rcc.c ****   }
 590:Drivers/STM32F4xx_HAL_Driver/Src/stm32f4xx_hal_rcc.c **** 
 591:Drivers/STM32F4xx_HAL_Driver/Src/stm32f4xx_hal_rcc.c ****   /* Check the parameters */
 592:Drivers/STM32F4xx_HAL_Driver/Src/stm32f4xx_hal_rcc.c ****   assert_param(IS_RCC_CLOCKTYPE(RCC_ClkInitStruct->ClockType));
 593:Drivers/STM32F4xx_HAL_Driver/Src/stm32f4xx_hal_rcc.c ****   assert_param(IS_FLASH_LATENCY(FLatency));
 594:Drivers/STM32F4xx_HAL_Driver/Src/stm32f4xx_hal_rcc.c **** 
 595:Drivers/STM32F4xx_HAL_Driver/Src/stm32f4xx_hal_rcc.c ****   /* To correctly read data from FLASH memory, the number of wait states (LATENCY)
 596:Drivers/STM32F4xx_HAL_Driver/Src/stm32f4xx_hal_rcc.c ****     must be correctly programmed according to the frequency of the CPU clock
 597:Drivers/STM32F4xx_HAL_Driver/Src/stm32f4xx_hal_rcc.c ****     (HCLK) and the supply voltage of the device. */
 598:Drivers/STM32F4xx_HAL_Driver/Src/stm32f4xx_hal_rcc.c **** 
ARM GAS  /tmp/cc8pL1nJ.s 			page 30


 599:Drivers/STM32F4xx_HAL_Driver/Src/stm32f4xx_hal_rcc.c ****   /* Increasing the number of wait states because of higher CPU frequency */
 600:Drivers/STM32F4xx_HAL_Driver/Src/stm32f4xx_hal_rcc.c ****   if(FLatency > __HAL_FLASH_GET_LATENCY())
 601:Drivers/STM32F4xx_HAL_Driver/Src/stm32f4xx_hal_rcc.c ****   {
 602:Drivers/STM32F4xx_HAL_Driver/Src/stm32f4xx_hal_rcc.c ****     /* Program the new number of wait states to the LATENCY bits in the FLASH_ACR register */
 603:Drivers/STM32F4xx_HAL_Driver/Src/stm32f4xx_hal_rcc.c ****     __HAL_FLASH_SET_LATENCY(FLatency);
 604:Drivers/STM32F4xx_HAL_Driver/Src/stm32f4xx_hal_rcc.c **** 
 605:Drivers/STM32F4xx_HAL_Driver/Src/stm32f4xx_hal_rcc.c ****     /* Check that the new number of wait states is taken into account to access the Flash
 606:Drivers/STM32F4xx_HAL_Driver/Src/stm32f4xx_hal_rcc.c ****     memory by reading the FLASH_ACR register */
 607:Drivers/STM32F4xx_HAL_Driver/Src/stm32f4xx_hal_rcc.c ****     if(__HAL_FLASH_GET_LATENCY() != FLatency)
 608:Drivers/STM32F4xx_HAL_Driver/Src/stm32f4xx_hal_rcc.c ****     {
 609:Drivers/STM32F4xx_HAL_Driver/Src/stm32f4xx_hal_rcc.c ****       return HAL_ERROR;
 610:Drivers/STM32F4xx_HAL_Driver/Src/stm32f4xx_hal_rcc.c ****     }
 611:Drivers/STM32F4xx_HAL_Driver/Src/stm32f4xx_hal_rcc.c ****   }
 612:Drivers/STM32F4xx_HAL_Driver/Src/stm32f4xx_hal_rcc.c **** 
 613:Drivers/STM32F4xx_HAL_Driver/Src/stm32f4xx_hal_rcc.c ****   /*-------------------------- HCLK Configuration --------------------------*/
 614:Drivers/STM32F4xx_HAL_Driver/Src/stm32f4xx_hal_rcc.c ****   if(((RCC_ClkInitStruct->ClockType) & RCC_CLOCKTYPE_HCLK) == RCC_CLOCKTYPE_HCLK)
 615:Drivers/STM32F4xx_HAL_Driver/Src/stm32f4xx_hal_rcc.c ****   {
 616:Drivers/STM32F4xx_HAL_Driver/Src/stm32f4xx_hal_rcc.c ****     /* Set the highest APBx dividers in order to ensure that we do not go through
 617:Drivers/STM32F4xx_HAL_Driver/Src/stm32f4xx_hal_rcc.c ****        a non-spec phase whatever we decrease or increase HCLK. */
 618:Drivers/STM32F4xx_HAL_Driver/Src/stm32f4xx_hal_rcc.c ****     if(((RCC_ClkInitStruct->ClockType) & RCC_CLOCKTYPE_PCLK1) == RCC_CLOCKTYPE_PCLK1)
 619:Drivers/STM32F4xx_HAL_Driver/Src/stm32f4xx_hal_rcc.c ****     {
 620:Drivers/STM32F4xx_HAL_Driver/Src/stm32f4xx_hal_rcc.c ****       MODIFY_REG(RCC->CFGR, RCC_CFGR_PPRE1, RCC_HCLK_DIV16);
 621:Drivers/STM32F4xx_HAL_Driver/Src/stm32f4xx_hal_rcc.c ****     }
 622:Drivers/STM32F4xx_HAL_Driver/Src/stm32f4xx_hal_rcc.c **** 
 623:Drivers/STM32F4xx_HAL_Driver/Src/stm32f4xx_hal_rcc.c ****     if(((RCC_ClkInitStruct->ClockType) & RCC_CLOCKTYPE_PCLK2) == RCC_CLOCKTYPE_PCLK2)
 624:Drivers/STM32F4xx_HAL_Driver/Src/stm32f4xx_hal_rcc.c ****     {
 625:Drivers/STM32F4xx_HAL_Driver/Src/stm32f4xx_hal_rcc.c ****       MODIFY_REG(RCC->CFGR, RCC_CFGR_PPRE2, (RCC_HCLK_DIV16 << 3));
 626:Drivers/STM32F4xx_HAL_Driver/Src/stm32f4xx_hal_rcc.c ****     }
 627:Drivers/STM32F4xx_HAL_Driver/Src/stm32f4xx_hal_rcc.c **** 
 628:Drivers/STM32F4xx_HAL_Driver/Src/stm32f4xx_hal_rcc.c ****     assert_param(IS_RCC_HCLK(RCC_ClkInitStruct->AHBCLKDivider));
 629:Drivers/STM32F4xx_HAL_Driver/Src/stm32f4xx_hal_rcc.c ****     MODIFY_REG(RCC->CFGR, RCC_CFGR_HPRE, RCC_ClkInitStruct->AHBCLKDivider);
 630:Drivers/STM32F4xx_HAL_Driver/Src/stm32f4xx_hal_rcc.c ****   }
 631:Drivers/STM32F4xx_HAL_Driver/Src/stm32f4xx_hal_rcc.c **** 
 632:Drivers/STM32F4xx_HAL_Driver/Src/stm32f4xx_hal_rcc.c ****   /*------------------------- SYSCLK Configuration ---------------------------*/
 633:Drivers/STM32F4xx_HAL_Driver/Src/stm32f4xx_hal_rcc.c ****   if(((RCC_ClkInitStruct->ClockType) & RCC_CLOCKTYPE_SYSCLK) == RCC_CLOCKTYPE_SYSCLK)
 634:Drivers/STM32F4xx_HAL_Driver/Src/stm32f4xx_hal_rcc.c ****   {
 635:Drivers/STM32F4xx_HAL_Driver/Src/stm32f4xx_hal_rcc.c ****     assert_param(IS_RCC_SYSCLKSOURCE(RCC_ClkInitStruct->SYSCLKSource));
 636:Drivers/STM32F4xx_HAL_Driver/Src/stm32f4xx_hal_rcc.c **** 
 637:Drivers/STM32F4xx_HAL_Driver/Src/stm32f4xx_hal_rcc.c ****     /* HSE is selected as System Clock Source */
 638:Drivers/STM32F4xx_HAL_Driver/Src/stm32f4xx_hal_rcc.c ****     if(RCC_ClkInitStruct->SYSCLKSource == RCC_SYSCLKSOURCE_HSE)
 639:Drivers/STM32F4xx_HAL_Driver/Src/stm32f4xx_hal_rcc.c ****     {
 640:Drivers/STM32F4xx_HAL_Driver/Src/stm32f4xx_hal_rcc.c ****       /* Check the HSE ready flag */
 641:Drivers/STM32F4xx_HAL_Driver/Src/stm32f4xx_hal_rcc.c ****       if(__HAL_RCC_GET_FLAG(RCC_FLAG_HSERDY) == RESET)
 642:Drivers/STM32F4xx_HAL_Driver/Src/stm32f4xx_hal_rcc.c ****       {
 643:Drivers/STM32F4xx_HAL_Driver/Src/stm32f4xx_hal_rcc.c ****         return HAL_ERROR;
 644:Drivers/STM32F4xx_HAL_Driver/Src/stm32f4xx_hal_rcc.c ****       }
 645:Drivers/STM32F4xx_HAL_Driver/Src/stm32f4xx_hal_rcc.c ****     }
 646:Drivers/STM32F4xx_HAL_Driver/Src/stm32f4xx_hal_rcc.c ****     /* PLL is selected as System Clock Source */
 647:Drivers/STM32F4xx_HAL_Driver/Src/stm32f4xx_hal_rcc.c ****     else if((RCC_ClkInitStruct->SYSCLKSource == RCC_SYSCLKSOURCE_PLLCLK)   ||
 648:Drivers/STM32F4xx_HAL_Driver/Src/stm32f4xx_hal_rcc.c ****             (RCC_ClkInitStruct->SYSCLKSource == RCC_SYSCLKSOURCE_PLLRCLK))
 649:Drivers/STM32F4xx_HAL_Driver/Src/stm32f4xx_hal_rcc.c ****     {
 650:Drivers/STM32F4xx_HAL_Driver/Src/stm32f4xx_hal_rcc.c ****       /* Check the PLL ready flag */
 651:Drivers/STM32F4xx_HAL_Driver/Src/stm32f4xx_hal_rcc.c ****       if(__HAL_RCC_GET_FLAG(RCC_FLAG_PLLRDY) == RESET)
 652:Drivers/STM32F4xx_HAL_Driver/Src/stm32f4xx_hal_rcc.c ****       {
 653:Drivers/STM32F4xx_HAL_Driver/Src/stm32f4xx_hal_rcc.c ****         return HAL_ERROR;
 654:Drivers/STM32F4xx_HAL_Driver/Src/stm32f4xx_hal_rcc.c ****       }
 655:Drivers/STM32F4xx_HAL_Driver/Src/stm32f4xx_hal_rcc.c ****     }
ARM GAS  /tmp/cc8pL1nJ.s 			page 31


 656:Drivers/STM32F4xx_HAL_Driver/Src/stm32f4xx_hal_rcc.c ****     /* HSI is selected as System Clock Source */
 657:Drivers/STM32F4xx_HAL_Driver/Src/stm32f4xx_hal_rcc.c ****     else
 658:Drivers/STM32F4xx_HAL_Driver/Src/stm32f4xx_hal_rcc.c ****     {
 659:Drivers/STM32F4xx_HAL_Driver/Src/stm32f4xx_hal_rcc.c ****       /* Check the HSI ready flag */
 660:Drivers/STM32F4xx_HAL_Driver/Src/stm32f4xx_hal_rcc.c ****       if(__HAL_RCC_GET_FLAG(RCC_FLAG_HSIRDY) == RESET)
 661:Drivers/STM32F4xx_HAL_Driver/Src/stm32f4xx_hal_rcc.c ****       {
 662:Drivers/STM32F4xx_HAL_Driver/Src/stm32f4xx_hal_rcc.c ****         return HAL_ERROR;
 663:Drivers/STM32F4xx_HAL_Driver/Src/stm32f4xx_hal_rcc.c ****       }
 664:Drivers/STM32F4xx_HAL_Driver/Src/stm32f4xx_hal_rcc.c ****     }
 665:Drivers/STM32F4xx_HAL_Driver/Src/stm32f4xx_hal_rcc.c **** 
 666:Drivers/STM32F4xx_HAL_Driver/Src/stm32f4xx_hal_rcc.c ****     __HAL_RCC_SYSCLK_CONFIG(RCC_ClkInitStruct->SYSCLKSource);
 667:Drivers/STM32F4xx_HAL_Driver/Src/stm32f4xx_hal_rcc.c **** 
 668:Drivers/STM32F4xx_HAL_Driver/Src/stm32f4xx_hal_rcc.c ****     /* Get Start Tick */
 669:Drivers/STM32F4xx_HAL_Driver/Src/stm32f4xx_hal_rcc.c ****     tickstart = HAL_GetTick();
 670:Drivers/STM32F4xx_HAL_Driver/Src/stm32f4xx_hal_rcc.c **** 
 671:Drivers/STM32F4xx_HAL_Driver/Src/stm32f4xx_hal_rcc.c ****     while (__HAL_RCC_GET_SYSCLK_SOURCE() != (RCC_ClkInitStruct->SYSCLKSource << RCC_CFGR_SWS_Pos))
 672:Drivers/STM32F4xx_HAL_Driver/Src/stm32f4xx_hal_rcc.c ****     {
 673:Drivers/STM32F4xx_HAL_Driver/Src/stm32f4xx_hal_rcc.c ****       if ((HAL_GetTick() - tickstart) > CLOCKSWITCH_TIMEOUT_VALUE)
 674:Drivers/STM32F4xx_HAL_Driver/Src/stm32f4xx_hal_rcc.c ****       {
 675:Drivers/STM32F4xx_HAL_Driver/Src/stm32f4xx_hal_rcc.c ****         return HAL_TIMEOUT;
 676:Drivers/STM32F4xx_HAL_Driver/Src/stm32f4xx_hal_rcc.c ****       }
 677:Drivers/STM32F4xx_HAL_Driver/Src/stm32f4xx_hal_rcc.c ****     }
 678:Drivers/STM32F4xx_HAL_Driver/Src/stm32f4xx_hal_rcc.c ****   }
 679:Drivers/STM32F4xx_HAL_Driver/Src/stm32f4xx_hal_rcc.c **** 
 680:Drivers/STM32F4xx_HAL_Driver/Src/stm32f4xx_hal_rcc.c ****   /* Decreasing the number of wait states because of lower CPU frequency */
 681:Drivers/STM32F4xx_HAL_Driver/Src/stm32f4xx_hal_rcc.c ****   if(FLatency < __HAL_FLASH_GET_LATENCY())
 682:Drivers/STM32F4xx_HAL_Driver/Src/stm32f4xx_hal_rcc.c ****   {
 683:Drivers/STM32F4xx_HAL_Driver/Src/stm32f4xx_hal_rcc.c ****      /* Program the new number of wait states to the LATENCY bits in the FLASH_ACR register */
 684:Drivers/STM32F4xx_HAL_Driver/Src/stm32f4xx_hal_rcc.c ****     __HAL_FLASH_SET_LATENCY(FLatency);
 685:Drivers/STM32F4xx_HAL_Driver/Src/stm32f4xx_hal_rcc.c **** 
 686:Drivers/STM32F4xx_HAL_Driver/Src/stm32f4xx_hal_rcc.c ****     /* Check that the new number of wait states is taken into account to access the Flash
 687:Drivers/STM32F4xx_HAL_Driver/Src/stm32f4xx_hal_rcc.c ****     memory by reading the FLASH_ACR register */
 688:Drivers/STM32F4xx_HAL_Driver/Src/stm32f4xx_hal_rcc.c ****     if(__HAL_FLASH_GET_LATENCY() != FLatency)
 689:Drivers/STM32F4xx_HAL_Driver/Src/stm32f4xx_hal_rcc.c ****     {
 690:Drivers/STM32F4xx_HAL_Driver/Src/stm32f4xx_hal_rcc.c ****       return HAL_ERROR;
 691:Drivers/STM32F4xx_HAL_Driver/Src/stm32f4xx_hal_rcc.c ****     }
 692:Drivers/STM32F4xx_HAL_Driver/Src/stm32f4xx_hal_rcc.c ****   }
 693:Drivers/STM32F4xx_HAL_Driver/Src/stm32f4xx_hal_rcc.c **** 
 694:Drivers/STM32F4xx_HAL_Driver/Src/stm32f4xx_hal_rcc.c ****   /*-------------------------- PCLK1 Configuration ---------------------------*/
 695:Drivers/STM32F4xx_HAL_Driver/Src/stm32f4xx_hal_rcc.c ****   if(((RCC_ClkInitStruct->ClockType) & RCC_CLOCKTYPE_PCLK1) == RCC_CLOCKTYPE_PCLK1)
 696:Drivers/STM32F4xx_HAL_Driver/Src/stm32f4xx_hal_rcc.c ****   {
 697:Drivers/STM32F4xx_HAL_Driver/Src/stm32f4xx_hal_rcc.c ****     assert_param(IS_RCC_PCLK(RCC_ClkInitStruct->APB1CLKDivider));
 698:Drivers/STM32F4xx_HAL_Driver/Src/stm32f4xx_hal_rcc.c ****     MODIFY_REG(RCC->CFGR, RCC_CFGR_PPRE1, RCC_ClkInitStruct->APB1CLKDivider);
 699:Drivers/STM32F4xx_HAL_Driver/Src/stm32f4xx_hal_rcc.c ****   }
 700:Drivers/STM32F4xx_HAL_Driver/Src/stm32f4xx_hal_rcc.c **** 
 701:Drivers/STM32F4xx_HAL_Driver/Src/stm32f4xx_hal_rcc.c ****   /*-------------------------- PCLK2 Configuration ---------------------------*/
 702:Drivers/STM32F4xx_HAL_Driver/Src/stm32f4xx_hal_rcc.c ****   if(((RCC_ClkInitStruct->ClockType) & RCC_CLOCKTYPE_PCLK2) == RCC_CLOCKTYPE_PCLK2)
 703:Drivers/STM32F4xx_HAL_Driver/Src/stm32f4xx_hal_rcc.c ****   {
 704:Drivers/STM32F4xx_HAL_Driver/Src/stm32f4xx_hal_rcc.c ****     assert_param(IS_RCC_PCLK(RCC_ClkInitStruct->APB2CLKDivider));
 705:Drivers/STM32F4xx_HAL_Driver/Src/stm32f4xx_hal_rcc.c ****     MODIFY_REG(RCC->CFGR, RCC_CFGR_PPRE2, ((RCC_ClkInitStruct->APB2CLKDivider) << 3U));
 706:Drivers/STM32F4xx_HAL_Driver/Src/stm32f4xx_hal_rcc.c ****   }
 707:Drivers/STM32F4xx_HAL_Driver/Src/stm32f4xx_hal_rcc.c **** 
 708:Drivers/STM32F4xx_HAL_Driver/Src/stm32f4xx_hal_rcc.c ****   /* Update the SystemCoreClock global variable */
 709:Drivers/STM32F4xx_HAL_Driver/Src/stm32f4xx_hal_rcc.c ****   SystemCoreClock = HAL_RCC_GetSysClockFreq() >> AHBPrescTable[(RCC->CFGR & RCC_CFGR_HPRE)>> RCC_CF
 710:Drivers/STM32F4xx_HAL_Driver/Src/stm32f4xx_hal_rcc.c **** 
 711:Drivers/STM32F4xx_HAL_Driver/Src/stm32f4xx_hal_rcc.c ****   /* Configure the source of time base considering new system clocks settings */
 712:Drivers/STM32F4xx_HAL_Driver/Src/stm32f4xx_hal_rcc.c ****   HAL_InitTick (TICK_INT_PRIORITY);
ARM GAS  /tmp/cc8pL1nJ.s 			page 32


 713:Drivers/STM32F4xx_HAL_Driver/Src/stm32f4xx_hal_rcc.c **** 
 714:Drivers/STM32F4xx_HAL_Driver/Src/stm32f4xx_hal_rcc.c ****   return HAL_OK;
 715:Drivers/STM32F4xx_HAL_Driver/Src/stm32f4xx_hal_rcc.c **** }
 716:Drivers/STM32F4xx_HAL_Driver/Src/stm32f4xx_hal_rcc.c **** 
 717:Drivers/STM32F4xx_HAL_Driver/Src/stm32f4xx_hal_rcc.c **** /**
 718:Drivers/STM32F4xx_HAL_Driver/Src/stm32f4xx_hal_rcc.c ****   * @}
 719:Drivers/STM32F4xx_HAL_Driver/Src/stm32f4xx_hal_rcc.c ****   */
 720:Drivers/STM32F4xx_HAL_Driver/Src/stm32f4xx_hal_rcc.c **** 
 721:Drivers/STM32F4xx_HAL_Driver/Src/stm32f4xx_hal_rcc.c **** /** @defgroup RCC_Exported_Functions_Group2 Peripheral Control functions
 722:Drivers/STM32F4xx_HAL_Driver/Src/stm32f4xx_hal_rcc.c ****  *  @brief   RCC clocks control functions
 723:Drivers/STM32F4xx_HAL_Driver/Src/stm32f4xx_hal_rcc.c ****  *
 724:Drivers/STM32F4xx_HAL_Driver/Src/stm32f4xx_hal_rcc.c **** @verbatim
 725:Drivers/STM32F4xx_HAL_Driver/Src/stm32f4xx_hal_rcc.c ****  ===============================================================================
 726:Drivers/STM32F4xx_HAL_Driver/Src/stm32f4xx_hal_rcc.c ****                       ##### Peripheral Control functions #####
 727:Drivers/STM32F4xx_HAL_Driver/Src/stm32f4xx_hal_rcc.c ****  ===============================================================================
 728:Drivers/STM32F4xx_HAL_Driver/Src/stm32f4xx_hal_rcc.c ****     [..]
 729:Drivers/STM32F4xx_HAL_Driver/Src/stm32f4xx_hal_rcc.c ****     This subsection provides a set of functions allowing to control the RCC Clocks
 730:Drivers/STM32F4xx_HAL_Driver/Src/stm32f4xx_hal_rcc.c ****     frequencies.
 731:Drivers/STM32F4xx_HAL_Driver/Src/stm32f4xx_hal_rcc.c **** 
 732:Drivers/STM32F4xx_HAL_Driver/Src/stm32f4xx_hal_rcc.c **** @endverbatim
 733:Drivers/STM32F4xx_HAL_Driver/Src/stm32f4xx_hal_rcc.c ****   * @{
 734:Drivers/STM32F4xx_HAL_Driver/Src/stm32f4xx_hal_rcc.c ****   */
 735:Drivers/STM32F4xx_HAL_Driver/Src/stm32f4xx_hal_rcc.c **** 
 736:Drivers/STM32F4xx_HAL_Driver/Src/stm32f4xx_hal_rcc.c **** /**
 737:Drivers/STM32F4xx_HAL_Driver/Src/stm32f4xx_hal_rcc.c ****   * @brief  Selects the clock source to output on MCO1 pin(PA8) or on MCO2 pin(PC9).
 738:Drivers/STM32F4xx_HAL_Driver/Src/stm32f4xx_hal_rcc.c ****   * @note   PA8/PC9 should be configured in alternate function mode.
 739:Drivers/STM32F4xx_HAL_Driver/Src/stm32f4xx_hal_rcc.c ****   * @param  RCC_MCOx specifies the output direction for the clock source.
 740:Drivers/STM32F4xx_HAL_Driver/Src/stm32f4xx_hal_rcc.c ****   *          This parameter can be one of the following values:
 741:Drivers/STM32F4xx_HAL_Driver/Src/stm32f4xx_hal_rcc.c ****   *            @arg RCC_MCO1: Clock source to output on MCO1 pin(PA8).
 742:Drivers/STM32F4xx_HAL_Driver/Src/stm32f4xx_hal_rcc.c ****   *            @arg RCC_MCO2: Clock source to output on MCO2 pin(PC9).
 743:Drivers/STM32F4xx_HAL_Driver/Src/stm32f4xx_hal_rcc.c ****   * @param  RCC_MCOSource specifies the clock source to output.
 744:Drivers/STM32F4xx_HAL_Driver/Src/stm32f4xx_hal_rcc.c ****   *          This parameter can be one of the following values:
 745:Drivers/STM32F4xx_HAL_Driver/Src/stm32f4xx_hal_rcc.c ****   *            @arg RCC_MCO1SOURCE_HSI: HSI clock selected as MCO1 source
 746:Drivers/STM32F4xx_HAL_Driver/Src/stm32f4xx_hal_rcc.c ****   *            @arg RCC_MCO1SOURCE_LSE: LSE clock selected as MCO1 source
 747:Drivers/STM32F4xx_HAL_Driver/Src/stm32f4xx_hal_rcc.c ****   *            @arg RCC_MCO1SOURCE_HSE: HSE clock selected as MCO1 source
 748:Drivers/STM32F4xx_HAL_Driver/Src/stm32f4xx_hal_rcc.c ****   *            @arg RCC_MCO1SOURCE_PLLCLK: main PLL clock selected as MCO1 source
 749:Drivers/STM32F4xx_HAL_Driver/Src/stm32f4xx_hal_rcc.c ****   *            @arg RCC_MCO2SOURCE_SYSCLK: System clock (SYSCLK) selected as MCO2 source
 750:Drivers/STM32F4xx_HAL_Driver/Src/stm32f4xx_hal_rcc.c ****   *            @arg RCC_MCO2SOURCE_PLLI2SCLK: PLLI2S clock selected as MCO2 source, available for a
 751:Drivers/STM32F4xx_HAL_Driver/Src/stm32f4xx_hal_rcc.c ****   *            @arg RCC_MCO2SOURCE_I2SCLK: I2SCLK clock selected as MCO2 source, available only for
 752:Drivers/STM32F4xx_HAL_Driver/Src/stm32f4xx_hal_rcc.c ****   *            @arg RCC_MCO2SOURCE_HSE: HSE clock selected as MCO2 source
 753:Drivers/STM32F4xx_HAL_Driver/Src/stm32f4xx_hal_rcc.c ****   *            @arg RCC_MCO2SOURCE_PLLCLK: main PLL clock selected as MCO2 source
 754:Drivers/STM32F4xx_HAL_Driver/Src/stm32f4xx_hal_rcc.c ****   * @param  RCC_MCODiv specifies the MCOx prescaler.
 755:Drivers/STM32F4xx_HAL_Driver/Src/stm32f4xx_hal_rcc.c ****   *          This parameter can be one of the following values:
 756:Drivers/STM32F4xx_HAL_Driver/Src/stm32f4xx_hal_rcc.c ****   *            @arg RCC_MCODIV_1: no division applied to MCOx clock
 757:Drivers/STM32F4xx_HAL_Driver/Src/stm32f4xx_hal_rcc.c ****   *            @arg RCC_MCODIV_2: division by 2 applied to MCOx clock
 758:Drivers/STM32F4xx_HAL_Driver/Src/stm32f4xx_hal_rcc.c ****   *            @arg RCC_MCODIV_3: division by 3 applied to MCOx clock
 759:Drivers/STM32F4xx_HAL_Driver/Src/stm32f4xx_hal_rcc.c ****   *            @arg RCC_MCODIV_4: division by 4 applied to MCOx clock
 760:Drivers/STM32F4xx_HAL_Driver/Src/stm32f4xx_hal_rcc.c ****   *            @arg RCC_MCODIV_5: division by 5 applied to MCOx clock
 761:Drivers/STM32F4xx_HAL_Driver/Src/stm32f4xx_hal_rcc.c ****   * @note  For STM32F410Rx devices to output I2SCLK clock on MCO2 you should have
 762:Drivers/STM32F4xx_HAL_Driver/Src/stm32f4xx_hal_rcc.c ****   *        at last one of the SPI clocks enabled (SPI1, SPI2 or SPI5).
 763:Drivers/STM32F4xx_HAL_Driver/Src/stm32f4xx_hal_rcc.c ****   * @retval None
 764:Drivers/STM32F4xx_HAL_Driver/Src/stm32f4xx_hal_rcc.c ****   */
 765:Drivers/STM32F4xx_HAL_Driver/Src/stm32f4xx_hal_rcc.c **** void HAL_RCC_MCOConfig(uint32_t RCC_MCOx, uint32_t RCC_MCOSource, uint32_t RCC_MCODiv)
 766:Drivers/STM32F4xx_HAL_Driver/Src/stm32f4xx_hal_rcc.c **** {
 891              		.loc 1 766 1 view -0
 892              		.cfi_startproc
 893              		@ args = 0, pretend = 0, frame = 32
ARM GAS  /tmp/cc8pL1nJ.s 			page 33


 894              		@ frame_needed = 0, uses_anonymous_args = 0
 767:Drivers/STM32F4xx_HAL_Driver/Src/stm32f4xx_hal_rcc.c ****   GPIO_InitTypeDef GPIO_InitStruct;
 895              		.loc 1 767 3 view .LVU283
 768:Drivers/STM32F4xx_HAL_Driver/Src/stm32f4xx_hal_rcc.c ****   /* Check the parameters */
 769:Drivers/STM32F4xx_HAL_Driver/Src/stm32f4xx_hal_rcc.c ****   assert_param(IS_RCC_MCO(RCC_MCOx));
 896              		.loc 1 769 3 view .LVU284
 770:Drivers/STM32F4xx_HAL_Driver/Src/stm32f4xx_hal_rcc.c ****   assert_param(IS_RCC_MCODIV(RCC_MCODiv));
 897              		.loc 1 770 3 view .LVU285
 771:Drivers/STM32F4xx_HAL_Driver/Src/stm32f4xx_hal_rcc.c ****   /* RCC_MCO1 */
 772:Drivers/STM32F4xx_HAL_Driver/Src/stm32f4xx_hal_rcc.c ****   if(RCC_MCOx == RCC_MCO1)
 898              		.loc 1 772 3 view .LVU286
 766:Drivers/STM32F4xx_HAL_Driver/Src/stm32f4xx_hal_rcc.c ****   GPIO_InitTypeDef GPIO_InitStruct;
 899              		.loc 1 766 1 is_stmt 0 view .LVU287
 900 0000 70B5     		push	{r4, r5, r6, lr}
 901              	.LCFI10:
 902              		.cfi_def_cfa_offset 16
 903              		.cfi_offset 4, -16
 904              		.cfi_offset 5, -12
 905              		.cfi_offset 6, -8
 906              		.cfi_offset 14, -4
 907 0002 0C46     		mov	r4, r1
 908 0004 88B0     		sub	sp, sp, #32
 909              	.LCFI11:
 910              		.cfi_def_cfa_offset 48
 766:Drivers/STM32F4xx_HAL_Driver/Src/stm32f4xx_hal_rcc.c ****   GPIO_InitTypeDef GPIO_InitStruct;
 911              		.loc 1 766 1 view .LVU288
 912 0006 1646     		mov	r6, r2
 913              		.loc 1 772 5 view .LVU289
 914 0008 00BB     		cbnz	r0, .L117
 773:Drivers/STM32F4xx_HAL_Driver/Src/stm32f4xx_hal_rcc.c ****   {
 774:Drivers/STM32F4xx_HAL_Driver/Src/stm32f4xx_hal_rcc.c ****     assert_param(IS_RCC_MCO1SOURCE(RCC_MCOSource));
 915              		.loc 1 774 5 is_stmt 1 view .LVU290
 775:Drivers/STM32F4xx_HAL_Driver/Src/stm32f4xx_hal_rcc.c **** 
 776:Drivers/STM32F4xx_HAL_Driver/Src/stm32f4xx_hal_rcc.c ****     /* MCO1 Clock Enable */
 777:Drivers/STM32F4xx_HAL_Driver/Src/stm32f4xx_hal_rcc.c ****     __MCO1_CLK_ENABLE();
 916              		.loc 1 777 5 view .LVU291
 917              	.LBB13:
 918              		.loc 1 777 5 view .LVU292
 919 000a 214D     		ldr	r5, .L120
 920 000c 0190     		str	r0, [sp, #4]
 921              		.loc 1 777 5 view .LVU293
 922 000e 2B6B     		ldr	r3, [r5, #48]
 923 0010 43F00103 		orr	r3, r3, #1
 924 0014 2B63     		str	r3, [r5, #48]
 925              		.loc 1 777 5 view .LVU294
 926 0016 2B6B     		ldr	r3, [r5, #48]
 927 0018 03F00103 		and	r3, r3, #1
 928 001c 0146     		mov	r1, r0
 929              	.LVL77:
 930              		.loc 1 777 5 is_stmt 0 view .LVU295
 931 001e 0193     		str	r3, [sp, #4]
 932              		.loc 1 777 5 is_stmt 1 view .LVU296
 933              	.LBE13:
 778:Drivers/STM32F4xx_HAL_Driver/Src/stm32f4xx_hal_rcc.c **** 
 779:Drivers/STM32F4xx_HAL_Driver/Src/stm32f4xx_hal_rcc.c ****     /* Configure the MCO1 pin in alternate function mode */
 780:Drivers/STM32F4xx_HAL_Driver/Src/stm32f4xx_hal_rcc.c ****     GPIO_InitStruct.Pin = MCO1_PIN;
 934              		.loc 1 780 25 is_stmt 0 view .LVU297
ARM GAS  /tmp/cc8pL1nJ.s 			page 34


 935 0020 4FF48073 		mov	r3, #256
 781:Drivers/STM32F4xx_HAL_Driver/Src/stm32f4xx_hal_rcc.c ****     GPIO_InitStruct.Mode = GPIO_MODE_AF_PP;
 782:Drivers/STM32F4xx_HAL_Driver/Src/stm32f4xx_hal_rcc.c ****     GPIO_InitStruct.Speed = GPIO_SPEED_FREQ_VERY_HIGH;
 783:Drivers/STM32F4xx_HAL_Driver/Src/stm32f4xx_hal_rcc.c ****     GPIO_InitStruct.Pull = GPIO_NOPULL;
 936              		.loc 1 783 26 view .LVU298
 937 0024 0591     		str	r1, [sp, #20]
 938              	.LBB14:
 777:Drivers/STM32F4xx_HAL_Driver/Src/stm32f4xx_hal_rcc.c **** 
 939              		.loc 1 777 5 view .LVU299
 940 0026 019A     		ldr	r2, [sp, #4]
 941              	.LVL78:
 777:Drivers/STM32F4xx_HAL_Driver/Src/stm32f4xx_hal_rcc.c **** 
 942              		.loc 1 777 5 view .LVU300
 943              	.LBE14:
 780:Drivers/STM32F4xx_HAL_Driver/Src/stm32f4xx_hal_rcc.c ****     GPIO_InitStruct.Mode = GPIO_MODE_AF_PP;
 944              		.loc 1 780 5 is_stmt 1 view .LVU301
 784:Drivers/STM32F4xx_HAL_Driver/Src/stm32f4xx_hal_rcc.c ****     GPIO_InitStruct.Alternate = GPIO_AF0_MCO;
 945              		.loc 1 784 31 is_stmt 0 view .LVU302
 946 0028 0791     		str	r1, [sp, #28]
 781:Drivers/STM32F4xx_HAL_Driver/Src/stm32f4xx_hal_rcc.c ****     GPIO_InitStruct.Speed = GPIO_SPEED_FREQ_VERY_HIGH;
 947              		.loc 1 781 26 view .LVU303
 948 002a 0222     		movs	r2, #2
 780:Drivers/STM32F4xx_HAL_Driver/Src/stm32f4xx_hal_rcc.c ****     GPIO_InitStruct.Mode = GPIO_MODE_AF_PP;
 949              		.loc 1 780 25 view .LVU304
 950 002c 0393     		str	r3, [sp, #12]
 781:Drivers/STM32F4xx_HAL_Driver/Src/stm32f4xx_hal_rcc.c ****     GPIO_InitStruct.Speed = GPIO_SPEED_FREQ_VERY_HIGH;
 951              		.loc 1 781 5 is_stmt 1 view .LVU305
 785:Drivers/STM32F4xx_HAL_Driver/Src/stm32f4xx_hal_rcc.c ****     HAL_GPIO_Init(MCO1_GPIO_PORT, &GPIO_InitStruct);
 952              		.loc 1 785 5 is_stmt 0 view .LVU306
 953 002e 1948     		ldr	r0, .L120+4
 954              	.LVL79:
 781:Drivers/STM32F4xx_HAL_Driver/Src/stm32f4xx_hal_rcc.c ****     GPIO_InitStruct.Speed = GPIO_SPEED_FREQ_VERY_HIGH;
 955              		.loc 1 781 26 view .LVU307
 956 0030 0492     		str	r2, [sp, #16]
 782:Drivers/STM32F4xx_HAL_Driver/Src/stm32f4xx_hal_rcc.c ****     GPIO_InitStruct.Pull = GPIO_NOPULL;
 957              		.loc 1 782 5 is_stmt 1 view .LVU308
 782:Drivers/STM32F4xx_HAL_Driver/Src/stm32f4xx_hal_rcc.c ****     GPIO_InitStruct.Pull = GPIO_NOPULL;
 958              		.loc 1 782 27 is_stmt 0 view .LVU309
 959 0032 0323     		movs	r3, #3
 960              		.loc 1 785 5 view .LVU310
 961 0034 03A9     		add	r1, sp, #12
 962              	.LVL80:
 782:Drivers/STM32F4xx_HAL_Driver/Src/stm32f4xx_hal_rcc.c ****     GPIO_InitStruct.Pull = GPIO_NOPULL;
 963              		.loc 1 782 27 view .LVU311
 964 0036 0693     		str	r3, [sp, #24]
 783:Drivers/STM32F4xx_HAL_Driver/Src/stm32f4xx_hal_rcc.c ****     GPIO_InitStruct.Alternate = GPIO_AF0_MCO;
 965              		.loc 1 783 5 is_stmt 1 view .LVU312
 784:Drivers/STM32F4xx_HAL_Driver/Src/stm32f4xx_hal_rcc.c ****     HAL_GPIO_Init(MCO1_GPIO_PORT, &GPIO_InitStruct);
 966              		.loc 1 784 5 view .LVU313
 967              		.loc 1 785 5 view .LVU314
 968 0038 FFF7FEFF 		bl	HAL_GPIO_Init
 969              	.LVL81:
 786:Drivers/STM32F4xx_HAL_Driver/Src/stm32f4xx_hal_rcc.c **** 
 787:Drivers/STM32F4xx_HAL_Driver/Src/stm32f4xx_hal_rcc.c ****     /* Mask MCO1 and MCO1PRE[2:0] bits then Select MCO1 clock source and prescaler */
 788:Drivers/STM32F4xx_HAL_Driver/Src/stm32f4xx_hal_rcc.c ****     MODIFY_REG(RCC->CFGR, (RCC_CFGR_MCO1 | RCC_CFGR_MCO1PRE), (RCC_MCOSource | RCC_MCODiv));
 970              		.loc 1 788 5 view .LVU315
 971 003c AB68     		ldr	r3, [r5, #8]
ARM GAS  /tmp/cc8pL1nJ.s 			page 35


 972 003e 23F0EC63 		bic	r3, r3, #123731968
 973 0042 3343     		orrs	r3, r3, r6
 974 0044 1C43     		orrs	r4, r4, r3
 975              	.LVL82:
 976              		.loc 1 788 5 is_stmt 0 view .LVU316
 977 0046 AC60     		str	r4, [r5, #8]
 789:Drivers/STM32F4xx_HAL_Driver/Src/stm32f4xx_hal_rcc.c **** 
 790:Drivers/STM32F4xx_HAL_Driver/Src/stm32f4xx_hal_rcc.c ****    /* This RCC MCO1 enable feature is available only on STM32F410xx devices */
 791:Drivers/STM32F4xx_HAL_Driver/Src/stm32f4xx_hal_rcc.c **** #if defined(RCC_CFGR_MCO1EN)
 792:Drivers/STM32F4xx_HAL_Driver/Src/stm32f4xx_hal_rcc.c ****     __HAL_RCC_MCO1_ENABLE();
 793:Drivers/STM32F4xx_HAL_Driver/Src/stm32f4xx_hal_rcc.c **** #endif /* RCC_CFGR_MCO1EN */
 794:Drivers/STM32F4xx_HAL_Driver/Src/stm32f4xx_hal_rcc.c ****   }
 795:Drivers/STM32F4xx_HAL_Driver/Src/stm32f4xx_hal_rcc.c **** #if defined(RCC_CFGR_MCO2)
 796:Drivers/STM32F4xx_HAL_Driver/Src/stm32f4xx_hal_rcc.c ****   else
 797:Drivers/STM32F4xx_HAL_Driver/Src/stm32f4xx_hal_rcc.c ****   {
 798:Drivers/STM32F4xx_HAL_Driver/Src/stm32f4xx_hal_rcc.c ****     assert_param(IS_RCC_MCO2SOURCE(RCC_MCOSource));
 799:Drivers/STM32F4xx_HAL_Driver/Src/stm32f4xx_hal_rcc.c **** 
 800:Drivers/STM32F4xx_HAL_Driver/Src/stm32f4xx_hal_rcc.c ****     /* MCO2 Clock Enable */
 801:Drivers/STM32F4xx_HAL_Driver/Src/stm32f4xx_hal_rcc.c ****     __MCO2_CLK_ENABLE();
 802:Drivers/STM32F4xx_HAL_Driver/Src/stm32f4xx_hal_rcc.c **** 
 803:Drivers/STM32F4xx_HAL_Driver/Src/stm32f4xx_hal_rcc.c ****     /* Configure the MCO2 pin in alternate function mode */
 804:Drivers/STM32F4xx_HAL_Driver/Src/stm32f4xx_hal_rcc.c ****     GPIO_InitStruct.Pin = MCO2_PIN;
 805:Drivers/STM32F4xx_HAL_Driver/Src/stm32f4xx_hal_rcc.c ****     GPIO_InitStruct.Mode = GPIO_MODE_AF_PP;
 806:Drivers/STM32F4xx_HAL_Driver/Src/stm32f4xx_hal_rcc.c ****     GPIO_InitStruct.Speed = GPIO_SPEED_FREQ_VERY_HIGH;
 807:Drivers/STM32F4xx_HAL_Driver/Src/stm32f4xx_hal_rcc.c ****     GPIO_InitStruct.Pull = GPIO_NOPULL;
 808:Drivers/STM32F4xx_HAL_Driver/Src/stm32f4xx_hal_rcc.c ****     GPIO_InitStruct.Alternate = GPIO_AF0_MCO;
 809:Drivers/STM32F4xx_HAL_Driver/Src/stm32f4xx_hal_rcc.c ****     HAL_GPIO_Init(MCO2_GPIO_PORT, &GPIO_InitStruct);
 810:Drivers/STM32F4xx_HAL_Driver/Src/stm32f4xx_hal_rcc.c **** 
 811:Drivers/STM32F4xx_HAL_Driver/Src/stm32f4xx_hal_rcc.c ****     /* Mask MCO2 and MCO2PRE[2:0] bits then Select MCO2 clock source and prescaler */
 812:Drivers/STM32F4xx_HAL_Driver/Src/stm32f4xx_hal_rcc.c ****     MODIFY_REG(RCC->CFGR, (RCC_CFGR_MCO2 | RCC_CFGR_MCO2PRE), (RCC_MCOSource | (RCC_MCODiv << 3U)))
 813:Drivers/STM32F4xx_HAL_Driver/Src/stm32f4xx_hal_rcc.c **** 
 814:Drivers/STM32F4xx_HAL_Driver/Src/stm32f4xx_hal_rcc.c ****    /* This RCC MCO2 enable feature is available only on STM32F410Rx devices */
 815:Drivers/STM32F4xx_HAL_Driver/Src/stm32f4xx_hal_rcc.c **** #if defined(RCC_CFGR_MCO2EN)
 816:Drivers/STM32F4xx_HAL_Driver/Src/stm32f4xx_hal_rcc.c ****     __HAL_RCC_MCO2_ENABLE();
 817:Drivers/STM32F4xx_HAL_Driver/Src/stm32f4xx_hal_rcc.c **** #endif /* RCC_CFGR_MCO2EN */
 818:Drivers/STM32F4xx_HAL_Driver/Src/stm32f4xx_hal_rcc.c ****   }
 819:Drivers/STM32F4xx_HAL_Driver/Src/stm32f4xx_hal_rcc.c **** #endif /* RCC_CFGR_MCO2 */
 820:Drivers/STM32F4xx_HAL_Driver/Src/stm32f4xx_hal_rcc.c **** }
 978              		.loc 1 820 1 view .LVU317
 979 0048 08B0     		add	sp, sp, #32
 980              	.LCFI12:
 981              		.cfi_remember_state
 982              		.cfi_def_cfa_offset 16
 983              		@ sp needed
 984 004a 70BD     		pop	{r4, r5, r6, pc}
 985              	.LVL83:
 986              	.L117:
 987              	.LCFI13:
 988              		.cfi_restore_state
 798:Drivers/STM32F4xx_HAL_Driver/Src/stm32f4xx_hal_rcc.c **** 
 989              		.loc 1 798 5 is_stmt 1 view .LVU318
 801:Drivers/STM32F4xx_HAL_Driver/Src/stm32f4xx_hal_rcc.c **** 
 990              		.loc 1 801 5 view .LVU319
 991              	.LBB15:
 801:Drivers/STM32F4xx_HAL_Driver/Src/stm32f4xx_hal_rcc.c **** 
 992              		.loc 1 801 5 view .LVU320
 993 004c 104D     		ldr	r5, .L120
ARM GAS  /tmp/cc8pL1nJ.s 			page 36


 994              	.LBE15:
 809:Drivers/STM32F4xx_HAL_Driver/Src/stm32f4xx_hal_rcc.c **** 
 995              		.loc 1 809 5 is_stmt 0 view .LVU321
 996 004e 1248     		ldr	r0, .L120+8
 997              	.LVL84:
 998              	.LBB16:
 801:Drivers/STM32F4xx_HAL_Driver/Src/stm32f4xx_hal_rcc.c **** 
 999              		.loc 1 801 5 view .LVU322
 1000 0050 0023     		movs	r3, #0
 1001 0052 0293     		str	r3, [sp, #8]
 801:Drivers/STM32F4xx_HAL_Driver/Src/stm32f4xx_hal_rcc.c **** 
 1002              		.loc 1 801 5 is_stmt 1 view .LVU323
 1003 0054 2A6B     		ldr	r2, [r5, #48]
 1004              	.LVL85:
 801:Drivers/STM32F4xx_HAL_Driver/Src/stm32f4xx_hal_rcc.c **** 
 1005              		.loc 1 801 5 is_stmt 0 view .LVU324
 1006 0056 42F00402 		orr	r2, r2, #4
 1007 005a 2A63     		str	r2, [r5, #48]
 801:Drivers/STM32F4xx_HAL_Driver/Src/stm32f4xx_hal_rcc.c **** 
 1008              		.loc 1 801 5 is_stmt 1 view .LVU325
 1009 005c 2A6B     		ldr	r2, [r5, #48]
 1010              	.LBE16:
 807:Drivers/STM32F4xx_HAL_Driver/Src/stm32f4xx_hal_rcc.c ****     GPIO_InitStruct.Alternate = GPIO_AF0_MCO;
 1011              		.loc 1 807 26 is_stmt 0 view .LVU326
 1012 005e 0593     		str	r3, [sp, #20]
 1013              	.LBB17:
 801:Drivers/STM32F4xx_HAL_Driver/Src/stm32f4xx_hal_rcc.c **** 
 1014              		.loc 1 801 5 view .LVU327
 1015 0060 02F00402 		and	r2, r2, #4
 1016 0064 0292     		str	r2, [sp, #8]
 801:Drivers/STM32F4xx_HAL_Driver/Src/stm32f4xx_hal_rcc.c **** 
 1017              		.loc 1 801 5 is_stmt 1 view .LVU328
 1018              	.LBE17:
 804:Drivers/STM32F4xx_HAL_Driver/Src/stm32f4xx_hal_rcc.c ****     GPIO_InitStruct.Mode = GPIO_MODE_AF_PP;
 1019              		.loc 1 804 25 is_stmt 0 view .LVU329
 1020 0066 4FF40071 		mov	r1, #512
 1021              	.LVL86:
 1022              	.LBB18:
 801:Drivers/STM32F4xx_HAL_Driver/Src/stm32f4xx_hal_rcc.c **** 
 1023              		.loc 1 801 5 view .LVU330
 1024 006a 029A     		ldr	r2, [sp, #8]
 1025              	.LBE18:
 804:Drivers/STM32F4xx_HAL_Driver/Src/stm32f4xx_hal_rcc.c ****     GPIO_InitStruct.Mode = GPIO_MODE_AF_PP;
 1026              		.loc 1 804 5 is_stmt 1 view .LVU331
 808:Drivers/STM32F4xx_HAL_Driver/Src/stm32f4xx_hal_rcc.c ****     HAL_GPIO_Init(MCO2_GPIO_PORT, &GPIO_InitStruct);
 1027              		.loc 1 808 31 is_stmt 0 view .LVU332
 1028 006c 0793     		str	r3, [sp, #28]
 805:Drivers/STM32F4xx_HAL_Driver/Src/stm32f4xx_hal_rcc.c ****     GPIO_InitStruct.Speed = GPIO_SPEED_FREQ_VERY_HIGH;
 1029              		.loc 1 805 26 view .LVU333
 1030 006e 0222     		movs	r2, #2
 804:Drivers/STM32F4xx_HAL_Driver/Src/stm32f4xx_hal_rcc.c ****     GPIO_InitStruct.Mode = GPIO_MODE_AF_PP;
 1031              		.loc 1 804 25 view .LVU334
 1032 0070 0391     		str	r1, [sp, #12]
 805:Drivers/STM32F4xx_HAL_Driver/Src/stm32f4xx_hal_rcc.c ****     GPIO_InitStruct.Speed = GPIO_SPEED_FREQ_VERY_HIGH;
 1033              		.loc 1 805 5 is_stmt 1 view .LVU335
 806:Drivers/STM32F4xx_HAL_Driver/Src/stm32f4xx_hal_rcc.c ****     GPIO_InitStruct.Pull = GPIO_NOPULL;
 1034              		.loc 1 806 27 is_stmt 0 view .LVU336
ARM GAS  /tmp/cc8pL1nJ.s 			page 37


 1035 0072 0323     		movs	r3, #3
 809:Drivers/STM32F4xx_HAL_Driver/Src/stm32f4xx_hal_rcc.c **** 
 1036              		.loc 1 809 5 view .LVU337
 1037 0074 03A9     		add	r1, sp, #12
 805:Drivers/STM32F4xx_HAL_Driver/Src/stm32f4xx_hal_rcc.c ****     GPIO_InitStruct.Speed = GPIO_SPEED_FREQ_VERY_HIGH;
 1038              		.loc 1 805 26 view .LVU338
 1039 0076 0492     		str	r2, [sp, #16]
 806:Drivers/STM32F4xx_HAL_Driver/Src/stm32f4xx_hal_rcc.c ****     GPIO_InitStruct.Pull = GPIO_NOPULL;
 1040              		.loc 1 806 5 is_stmt 1 view .LVU339
 806:Drivers/STM32F4xx_HAL_Driver/Src/stm32f4xx_hal_rcc.c ****     GPIO_InitStruct.Pull = GPIO_NOPULL;
 1041              		.loc 1 806 27 is_stmt 0 view .LVU340
 1042 0078 0693     		str	r3, [sp, #24]
 807:Drivers/STM32F4xx_HAL_Driver/Src/stm32f4xx_hal_rcc.c ****     GPIO_InitStruct.Alternate = GPIO_AF0_MCO;
 1043              		.loc 1 807 5 is_stmt 1 view .LVU341
 808:Drivers/STM32F4xx_HAL_Driver/Src/stm32f4xx_hal_rcc.c ****     HAL_GPIO_Init(MCO2_GPIO_PORT, &GPIO_InitStruct);
 1044              		.loc 1 808 5 view .LVU342
 809:Drivers/STM32F4xx_HAL_Driver/Src/stm32f4xx_hal_rcc.c **** 
 1045              		.loc 1 809 5 view .LVU343
 1046 007a FFF7FEFF 		bl	HAL_GPIO_Init
 1047              	.LVL87:
 812:Drivers/STM32F4xx_HAL_Driver/Src/stm32f4xx_hal_rcc.c **** 
 1048              		.loc 1 812 5 view .LVU344
 1049 007e A968     		ldr	r1, [r5, #8]
 1050 0080 44EAC604 		orr	r4, r4, r6, lsl #3
 1051              	.LVL88:
 812:Drivers/STM32F4xx_HAL_Driver/Src/stm32f4xx_hal_rcc.c **** 
 1052              		.loc 1 812 5 is_stmt 0 view .LVU345
 1053 0084 21F07841 		bic	r1, r1, #-134217728
 1054 0088 0C43     		orrs	r4, r4, r1
 1055 008a AC60     		str	r4, [r5, #8]
 1056              		.loc 1 820 1 view .LVU346
 1057 008c 08B0     		add	sp, sp, #32
 1058              	.LCFI14:
 1059              		.cfi_def_cfa_offset 16
 1060              		@ sp needed
 1061 008e 70BD     		pop	{r4, r5, r6, pc}
 1062              	.LVL89:
 1063              	.L121:
 1064              		.loc 1 820 1 view .LVU347
 1065              		.align	2
 1066              	.L120:
 1067 0090 00380240 		.word	1073887232
 1068 0094 00000240 		.word	1073872896
 1069 0098 00080240 		.word	1073874944
 1070              		.cfi_endproc
 1071              	.LFE129:
 1073              		.section	.text.HAL_RCC_EnableCSS,"ax",%progbits
 1074              		.align	1
 1075              		.p2align 2,,3
 1076              		.global	HAL_RCC_EnableCSS
 1077              		.syntax unified
 1078              		.thumb
 1079              		.thumb_func
 1080              		.fpu fpv4-sp-d16
 1082              	HAL_RCC_EnableCSS:
 1083              	.LFB130:
 821:Drivers/STM32F4xx_HAL_Driver/Src/stm32f4xx_hal_rcc.c **** 
ARM GAS  /tmp/cc8pL1nJ.s 			page 38


 822:Drivers/STM32F4xx_HAL_Driver/Src/stm32f4xx_hal_rcc.c **** /**
 823:Drivers/STM32F4xx_HAL_Driver/Src/stm32f4xx_hal_rcc.c ****   * @brief  Enables the Clock Security System.
 824:Drivers/STM32F4xx_HAL_Driver/Src/stm32f4xx_hal_rcc.c ****   * @note   If a failure is detected on the HSE oscillator clock, this oscillator
 825:Drivers/STM32F4xx_HAL_Driver/Src/stm32f4xx_hal_rcc.c ****   *         is automatically disabled and an interrupt is generated to inform the
 826:Drivers/STM32F4xx_HAL_Driver/Src/stm32f4xx_hal_rcc.c ****   *         software about the failure (Clock Security System Interrupt, CSSI),
 827:Drivers/STM32F4xx_HAL_Driver/Src/stm32f4xx_hal_rcc.c ****   *         allowing the MCU to perform rescue operations. The CSSI is linked to
 828:Drivers/STM32F4xx_HAL_Driver/Src/stm32f4xx_hal_rcc.c ****   *         the Cortex-M4 NMI (Non-Maskable Interrupt) exception vector.
 829:Drivers/STM32F4xx_HAL_Driver/Src/stm32f4xx_hal_rcc.c ****   * @retval None
 830:Drivers/STM32F4xx_HAL_Driver/Src/stm32f4xx_hal_rcc.c ****   */
 831:Drivers/STM32F4xx_HAL_Driver/Src/stm32f4xx_hal_rcc.c **** void HAL_RCC_EnableCSS(void)
 832:Drivers/STM32F4xx_HAL_Driver/Src/stm32f4xx_hal_rcc.c **** {
 1084              		.loc 1 832 1 is_stmt 1 view -0
 1085              		.cfi_startproc
 1086              		@ args = 0, pretend = 0, frame = 0
 1087              		@ frame_needed = 0, uses_anonymous_args = 0
 1088              		@ link register save eliminated.
 833:Drivers/STM32F4xx_HAL_Driver/Src/stm32f4xx_hal_rcc.c ****   *(__IO uint32_t *) RCC_CR_CSSON_BB = (uint32_t)ENABLE;
 1089              		.loc 1 833 3 view .LVU349
 1090              		.loc 1 833 38 is_stmt 0 view .LVU350
 1091 0000 014B     		ldr	r3, .L123
 1092 0002 0122     		movs	r2, #1
 1093 0004 1A60     		str	r2, [r3]
 834:Drivers/STM32F4xx_HAL_Driver/Src/stm32f4xx_hal_rcc.c **** }
 1094              		.loc 1 834 1 view .LVU351
 1095 0006 7047     		bx	lr
 1096              	.L124:
 1097              		.align	2
 1098              	.L123:
 1099 0008 4C004742 		.word	1111949388
 1100              		.cfi_endproc
 1101              	.LFE130:
 1103              		.section	.text.HAL_RCC_DisableCSS,"ax",%progbits
 1104              		.align	1
 1105              		.p2align 2,,3
 1106              		.global	HAL_RCC_DisableCSS
 1107              		.syntax unified
 1108              		.thumb
 1109              		.thumb_func
 1110              		.fpu fpv4-sp-d16
 1112              	HAL_RCC_DisableCSS:
 1113              	.LFB131:
 835:Drivers/STM32F4xx_HAL_Driver/Src/stm32f4xx_hal_rcc.c **** 
 836:Drivers/STM32F4xx_HAL_Driver/Src/stm32f4xx_hal_rcc.c **** /**
 837:Drivers/STM32F4xx_HAL_Driver/Src/stm32f4xx_hal_rcc.c ****   * @brief  Disables the Clock Security System.
 838:Drivers/STM32F4xx_HAL_Driver/Src/stm32f4xx_hal_rcc.c ****   * @retval None
 839:Drivers/STM32F4xx_HAL_Driver/Src/stm32f4xx_hal_rcc.c ****   */
 840:Drivers/STM32F4xx_HAL_Driver/Src/stm32f4xx_hal_rcc.c **** void HAL_RCC_DisableCSS(void)
 841:Drivers/STM32F4xx_HAL_Driver/Src/stm32f4xx_hal_rcc.c **** {
 1114              		.loc 1 841 1 is_stmt 1 view -0
 1115              		.cfi_startproc
 1116              		@ args = 0, pretend = 0, frame = 0
 1117              		@ frame_needed = 0, uses_anonymous_args = 0
 1118              		@ link register save eliminated.
 842:Drivers/STM32F4xx_HAL_Driver/Src/stm32f4xx_hal_rcc.c ****   *(__IO uint32_t *) RCC_CR_CSSON_BB = (uint32_t)DISABLE;
 1119              		.loc 1 842 3 view .LVU353
 1120              		.loc 1 842 38 is_stmt 0 view .LVU354
 1121 0000 014B     		ldr	r3, .L126
ARM GAS  /tmp/cc8pL1nJ.s 			page 39


 1122 0002 0022     		movs	r2, #0
 1123 0004 1A60     		str	r2, [r3]
 843:Drivers/STM32F4xx_HAL_Driver/Src/stm32f4xx_hal_rcc.c **** }
 1124              		.loc 1 843 1 view .LVU355
 1125 0006 7047     		bx	lr
 1126              	.L127:
 1127              		.align	2
 1128              	.L126:
 1129 0008 4C004742 		.word	1111949388
 1130              		.cfi_endproc
 1131              	.LFE131:
 1133              		.global	__aeabi_uldivmod
 1134              		.global	__aeabi_ldivmod
 1135              		.section	.text.HAL_RCC_GetSysClockFreq,"ax",%progbits
 1136              		.align	1
 1137              		.p2align 2,,3
 1138              		.weak	HAL_RCC_GetSysClockFreq
 1139              		.syntax unified
 1140              		.thumb
 1141              		.thumb_func
 1142              		.fpu fpv4-sp-d16
 1144              	HAL_RCC_GetSysClockFreq:
 1145              	.LFB132:
 844:Drivers/STM32F4xx_HAL_Driver/Src/stm32f4xx_hal_rcc.c **** 
 845:Drivers/STM32F4xx_HAL_Driver/Src/stm32f4xx_hal_rcc.c **** /**
 846:Drivers/STM32F4xx_HAL_Driver/Src/stm32f4xx_hal_rcc.c ****   * @brief  Returns the SYSCLK frequency
 847:Drivers/STM32F4xx_HAL_Driver/Src/stm32f4xx_hal_rcc.c ****   *
 848:Drivers/STM32F4xx_HAL_Driver/Src/stm32f4xx_hal_rcc.c ****   * @note   The system frequency computed by this function is not the real
 849:Drivers/STM32F4xx_HAL_Driver/Src/stm32f4xx_hal_rcc.c ****   *         frequency in the chip. It is calculated based on the predefined
 850:Drivers/STM32F4xx_HAL_Driver/Src/stm32f4xx_hal_rcc.c ****   *         constant and the selected clock source:
 851:Drivers/STM32F4xx_HAL_Driver/Src/stm32f4xx_hal_rcc.c ****   * @note     If SYSCLK source is HSI, function returns values based on HSI_VALUE(*)
 852:Drivers/STM32F4xx_HAL_Driver/Src/stm32f4xx_hal_rcc.c ****   * @note     If SYSCLK source is HSE, function returns values based on HSE_VALUE(**)
 853:Drivers/STM32F4xx_HAL_Driver/Src/stm32f4xx_hal_rcc.c ****   * @note     If SYSCLK source is PLL, function returns values based on HSE_VALUE(**)
 854:Drivers/STM32F4xx_HAL_Driver/Src/stm32f4xx_hal_rcc.c ****   *           or HSI_VALUE(*) multiplied/divided by the PLL factors.
 855:Drivers/STM32F4xx_HAL_Driver/Src/stm32f4xx_hal_rcc.c ****   * @note     (*) HSI_VALUE is a constant defined in stm32f4xx_hal_conf.h file (default value
 856:Drivers/STM32F4xx_HAL_Driver/Src/stm32f4xx_hal_rcc.c ****   *               16 MHz) but the real value may vary depending on the variations
 857:Drivers/STM32F4xx_HAL_Driver/Src/stm32f4xx_hal_rcc.c ****   *               in voltage and temperature.
 858:Drivers/STM32F4xx_HAL_Driver/Src/stm32f4xx_hal_rcc.c ****   * @note     (**) HSE_VALUE is a constant defined in stm32f4xx_hal_conf.h file (default value
 859:Drivers/STM32F4xx_HAL_Driver/Src/stm32f4xx_hal_rcc.c ****   *                25 MHz), user has to ensure that HSE_VALUE is same as the real
 860:Drivers/STM32F4xx_HAL_Driver/Src/stm32f4xx_hal_rcc.c ****   *                frequency of the crystal used. Otherwise, this function may
 861:Drivers/STM32F4xx_HAL_Driver/Src/stm32f4xx_hal_rcc.c ****   *                have wrong result.
 862:Drivers/STM32F4xx_HAL_Driver/Src/stm32f4xx_hal_rcc.c ****   *
 863:Drivers/STM32F4xx_HAL_Driver/Src/stm32f4xx_hal_rcc.c ****   * @note   The result of this function could be not correct when using fractional
 864:Drivers/STM32F4xx_HAL_Driver/Src/stm32f4xx_hal_rcc.c ****   *         value for HSE crystal.
 865:Drivers/STM32F4xx_HAL_Driver/Src/stm32f4xx_hal_rcc.c ****   *
 866:Drivers/STM32F4xx_HAL_Driver/Src/stm32f4xx_hal_rcc.c ****   * @note   This function can be used by the user application to compute the
 867:Drivers/STM32F4xx_HAL_Driver/Src/stm32f4xx_hal_rcc.c ****   *         baudrate for the communication peripherals or configure other parameters.
 868:Drivers/STM32F4xx_HAL_Driver/Src/stm32f4xx_hal_rcc.c ****   *
 869:Drivers/STM32F4xx_HAL_Driver/Src/stm32f4xx_hal_rcc.c ****   * @note   Each time SYSCLK changes, this function must be called to update the
 870:Drivers/STM32F4xx_HAL_Driver/Src/stm32f4xx_hal_rcc.c ****   *         right SYSCLK value. Otherwise, any configuration based on this function will be incorre
 871:Drivers/STM32F4xx_HAL_Driver/Src/stm32f4xx_hal_rcc.c ****   *
 872:Drivers/STM32F4xx_HAL_Driver/Src/stm32f4xx_hal_rcc.c ****   *
 873:Drivers/STM32F4xx_HAL_Driver/Src/stm32f4xx_hal_rcc.c ****   * @retval SYSCLK frequency
 874:Drivers/STM32F4xx_HAL_Driver/Src/stm32f4xx_hal_rcc.c ****   */
 875:Drivers/STM32F4xx_HAL_Driver/Src/stm32f4xx_hal_rcc.c **** __weak uint32_t HAL_RCC_GetSysClockFreq(void)
 876:Drivers/STM32F4xx_HAL_Driver/Src/stm32f4xx_hal_rcc.c **** {
 1146              		.loc 1 876 1 is_stmt 1 view -0
ARM GAS  /tmp/cc8pL1nJ.s 			page 40


 1147              		.cfi_startproc
 1148              		@ args = 0, pretend = 0, frame = 0
 1149              		@ frame_needed = 0, uses_anonymous_args = 0
 877:Drivers/STM32F4xx_HAL_Driver/Src/stm32f4xx_hal_rcc.c ****   uint32_t pllm = 0U, pllvco = 0U, pllp = 0U;
 1150              		.loc 1 877 3 view .LVU357
 1151              	.LVL90:
 878:Drivers/STM32F4xx_HAL_Driver/Src/stm32f4xx_hal_rcc.c ****   uint32_t sysclockfreq = 0U;
 1152              		.loc 1 878 3 view .LVU358
 879:Drivers/STM32F4xx_HAL_Driver/Src/stm32f4xx_hal_rcc.c **** 
 880:Drivers/STM32F4xx_HAL_Driver/Src/stm32f4xx_hal_rcc.c ****   /* Get SYSCLK source -------------------------------------------------------*/
 881:Drivers/STM32F4xx_HAL_Driver/Src/stm32f4xx_hal_rcc.c ****   switch (RCC->CFGR & RCC_CFGR_SWS)
 1153              		.loc 1 881 3 view .LVU359
 1154              		.loc 1 881 14 is_stmt 0 view .LVU360
 1155 0000 1749     		ldr	r1, .L136
 876:Drivers/STM32F4xx_HAL_Driver/Src/stm32f4xx_hal_rcc.c ****   uint32_t pllm = 0U, pllvco = 0U, pllp = 0U;
 1156              		.loc 1 876 1 view .LVU361
 1157 0002 08B5     		push	{r3, lr}
 1158              	.LCFI15:
 1159              		.cfi_def_cfa_offset 8
 1160              		.cfi_offset 3, -8
 1161              		.cfi_offset 14, -4
 1162              		.loc 1 881 14 view .LVU362
 1163 0004 8B68     		ldr	r3, [r1, #8]
 1164              		.loc 1 881 21 view .LVU363
 1165 0006 03F00C03 		and	r3, r3, #12
 1166 000a 042B     		cmp	r3, #4
 1167 000c 1BD0     		beq	.L132
 1168 000e 082B     		cmp	r3, #8
 1169 0010 17D1     		bne	.L133
 1170              	.LBB21:
 1171              	.LBB22:
 882:Drivers/STM32F4xx_HAL_Driver/Src/stm32f4xx_hal_rcc.c ****   {
 883:Drivers/STM32F4xx_HAL_Driver/Src/stm32f4xx_hal_rcc.c ****     case RCC_CFGR_SWS_HSI:  /* HSI used as system clock source */
 884:Drivers/STM32F4xx_HAL_Driver/Src/stm32f4xx_hal_rcc.c ****     {
 885:Drivers/STM32F4xx_HAL_Driver/Src/stm32f4xx_hal_rcc.c ****       sysclockfreq = HSI_VALUE;
 886:Drivers/STM32F4xx_HAL_Driver/Src/stm32f4xx_hal_rcc.c ****        break;
 887:Drivers/STM32F4xx_HAL_Driver/Src/stm32f4xx_hal_rcc.c ****     }
 888:Drivers/STM32F4xx_HAL_Driver/Src/stm32f4xx_hal_rcc.c ****     case RCC_CFGR_SWS_HSE:  /* HSE used as system clock  source */
 889:Drivers/STM32F4xx_HAL_Driver/Src/stm32f4xx_hal_rcc.c ****     {
 890:Drivers/STM32F4xx_HAL_Driver/Src/stm32f4xx_hal_rcc.c ****       sysclockfreq = HSE_VALUE;
 891:Drivers/STM32F4xx_HAL_Driver/Src/stm32f4xx_hal_rcc.c ****       break;
 892:Drivers/STM32F4xx_HAL_Driver/Src/stm32f4xx_hal_rcc.c ****     }
 893:Drivers/STM32F4xx_HAL_Driver/Src/stm32f4xx_hal_rcc.c ****     case RCC_CFGR_SWS_PLL:  /* PLL used as system clock  source */
 894:Drivers/STM32F4xx_HAL_Driver/Src/stm32f4xx_hal_rcc.c ****     {
 895:Drivers/STM32F4xx_HAL_Driver/Src/stm32f4xx_hal_rcc.c ****       /* PLL_VCO = (HSE_VALUE or HSI_VALUE / PLLM) * PLLN
 896:Drivers/STM32F4xx_HAL_Driver/Src/stm32f4xx_hal_rcc.c ****       SYSCLK = PLL_VCO / PLLP */
 897:Drivers/STM32F4xx_HAL_Driver/Src/stm32f4xx_hal_rcc.c ****       pllm = RCC->PLLCFGR & RCC_PLLCFGR_PLLM;
 1172              		.loc 1 897 7 is_stmt 1 view .LVU364
 1173              		.loc 1 897 17 is_stmt 0 view .LVU365
 1174 0012 4A68     		ldr	r2, [r1, #4]
 898:Drivers/STM32F4xx_HAL_Driver/Src/stm32f4xx_hal_rcc.c ****       if(__HAL_RCC_GET_PLL_OSCSOURCE() != RCC_PLLSOURCE_HSI)
 1175              		.loc 1 898 10 view .LVU366
 1176 0014 4B68     		ldr	r3, [r1, #4]
 1177              		.loc 1 898 9 view .LVU367
 1178 0016 13F48003 		ands	r3, r3, #4194304
 897:Drivers/STM32F4xx_HAL_Driver/Src/stm32f4xx_hal_rcc.c ****       if(__HAL_RCC_GET_PLL_OSCSOURCE() != RCC_PLLSOURCE_HSI)
 1179              		.loc 1 897 12 view .LVU368
ARM GAS  /tmp/cc8pL1nJ.s 			page 41


 1180 001a 02F03F02 		and	r2, r2, #63
 1181              	.LVL91:
 1182              		.loc 1 898 7 is_stmt 1 view .LVU369
 1183              		.loc 1 898 9 is_stmt 0 view .LVU370
 1184 001e 14D1     		bne	.L135
 899:Drivers/STM32F4xx_HAL_Driver/Src/stm32f4xx_hal_rcc.c ****       {
 900:Drivers/STM32F4xx_HAL_Driver/Src/stm32f4xx_hal_rcc.c ****         /* HSE used as PLL clock source */
 901:Drivers/STM32F4xx_HAL_Driver/Src/stm32f4xx_hal_rcc.c ****         pllvco = (uint32_t) ((((uint64_t) HSE_VALUE * ((uint64_t) ((RCC->PLLCFGR & RCC_PLLCFGR_PLLN
 902:Drivers/STM32F4xx_HAL_Driver/Src/stm32f4xx_hal_rcc.c ****       }
 903:Drivers/STM32F4xx_HAL_Driver/Src/stm32f4xx_hal_rcc.c ****       else
 904:Drivers/STM32F4xx_HAL_Driver/Src/stm32f4xx_hal_rcc.c ****       {
 905:Drivers/STM32F4xx_HAL_Driver/Src/stm32f4xx_hal_rcc.c ****         /* HSI used as PLL clock source */
 906:Drivers/STM32F4xx_HAL_Driver/Src/stm32f4xx_hal_rcc.c ****         pllvco = (uint32_t) ((((uint64_t) HSI_VALUE * ((uint64_t) ((RCC->PLLCFGR & RCC_PLLCFGR_PLLN
 1185              		.loc 1 906 9 is_stmt 1 view .LVU371
 1186              		.loc 1 906 72 is_stmt 0 view .LVU372
 1187 0020 4968     		ldr	r1, [r1, #4]
 1188              		.loc 1 906 53 view .LVU373
 1189 0022 1048     		ldr	r0, .L136+4
 1190 0024 C1F38811 		ubfx	r1, r1, #6, #9
 1191              		.loc 1 906 130 view .LVU374
 1192 0028 A1FB0001 		umull	r0, r1, r1, r0
 1193 002c FFF7FEFF 		bl	__aeabi_uldivmod
 1194              	.LVL92:
 1195              	.L131:
 907:Drivers/STM32F4xx_HAL_Driver/Src/stm32f4xx_hal_rcc.c ****       }
 908:Drivers/STM32F4xx_HAL_Driver/Src/stm32f4xx_hal_rcc.c ****       pllp = ((((RCC->PLLCFGR & RCC_PLLCFGR_PLLP) >> RCC_PLLCFGR_PLLP_Pos) + 1U) *2U);
 1196              		.loc 1 908 7 is_stmt 1 view .LVU375
 1197              		.loc 1 908 21 is_stmt 0 view .LVU376
 1198 0030 0B4B     		ldr	r3, .L136
 1199 0032 5B68     		ldr	r3, [r3, #4]
 1200              	.LVL93:
 909:Drivers/STM32F4xx_HAL_Driver/Src/stm32f4xx_hal_rcc.c **** 
 910:Drivers/STM32F4xx_HAL_Driver/Src/stm32f4xx_hal_rcc.c ****       sysclockfreq = pllvco/pllp;
 1201              		.loc 1 910 7 is_stmt 1 view .LVU377
 908:Drivers/STM32F4xx_HAL_Driver/Src/stm32f4xx_hal_rcc.c **** 
 1202              		.loc 1 908 51 is_stmt 0 view .LVU378
 1203 0034 C3F30143 		ubfx	r3, r3, #16, #2
 1204              	.LVL94:
 908:Drivers/STM32F4xx_HAL_Driver/Src/stm32f4xx_hal_rcc.c **** 
 1205              		.loc 1 908 82 view .LVU379
 1206 0038 0133     		adds	r3, r3, #1
 908:Drivers/STM32F4xx_HAL_Driver/Src/stm32f4xx_hal_rcc.c **** 
 1207              		.loc 1 908 12 view .LVU380
 1208 003a 5B00     		lsls	r3, r3, #1
 1209              		.loc 1 910 20 view .LVU381
 1210 003c B0FBF3F0 		udiv	r0, r0, r3
 1211              	.LVL95:
 911:Drivers/STM32F4xx_HAL_Driver/Src/stm32f4xx_hal_rcc.c ****       break;
 1212              		.loc 1 911 7 is_stmt 1 view .LVU382
 912:Drivers/STM32F4xx_HAL_Driver/Src/stm32f4xx_hal_rcc.c ****     }
 913:Drivers/STM32F4xx_HAL_Driver/Src/stm32f4xx_hal_rcc.c ****     default:
 914:Drivers/STM32F4xx_HAL_Driver/Src/stm32f4xx_hal_rcc.c ****     {
 915:Drivers/STM32F4xx_HAL_Driver/Src/stm32f4xx_hal_rcc.c ****       sysclockfreq = HSI_VALUE;
 916:Drivers/STM32F4xx_HAL_Driver/Src/stm32f4xx_hal_rcc.c ****       break;
 917:Drivers/STM32F4xx_HAL_Driver/Src/stm32f4xx_hal_rcc.c ****     }
 918:Drivers/STM32F4xx_HAL_Driver/Src/stm32f4xx_hal_rcc.c ****   }
 919:Drivers/STM32F4xx_HAL_Driver/Src/stm32f4xx_hal_rcc.c ****   return sysclockfreq;
ARM GAS  /tmp/cc8pL1nJ.s 			page 42


 1213              		.loc 1 919 3 view .LVU383
 1214              		.loc 1 919 3 is_stmt 0 view .LVU384
 1215              	.LBE22:
 1216              	.LBE21:
 920:Drivers/STM32F4xx_HAL_Driver/Src/stm32f4xx_hal_rcc.c **** }
 1217              		.loc 1 920 1 view .LVU385
 1218 0040 08BD     		pop	{r3, pc}
 1219              	.L133:
 885:Drivers/STM32F4xx_HAL_Driver/Src/stm32f4xx_hal_rcc.c ****        break;
 1220              		.loc 1 885 20 view .LVU386
 1221 0042 0848     		ldr	r0, .L136+4
 1222              	.LVL96:
 919:Drivers/STM32F4xx_HAL_Driver/Src/stm32f4xx_hal_rcc.c **** }
 1223              		.loc 1 919 3 is_stmt 1 view .LVU387
 1224              		.loc 1 920 1 is_stmt 0 view .LVU388
 1225 0044 08BD     		pop	{r3, pc}
 1226              	.LVL97:
 1227              	.L132:
 890:Drivers/STM32F4xx_HAL_Driver/Src/stm32f4xx_hal_rcc.c ****       break;
 1228              		.loc 1 890 20 view .LVU389
 1229 0046 0848     		ldr	r0, .L136+8
 1230              		.loc 1 920 1 view .LVU390
 1231 0048 08BD     		pop	{r3, pc}
 1232              	.LVL98:
 1233              	.L135:
 1234              	.LBB24:
 1235              	.LBB23:
 901:Drivers/STM32F4xx_HAL_Driver/Src/stm32f4xx_hal_rcc.c ****       }
 1236              		.loc 1 901 9 is_stmt 1 view .LVU391
 901:Drivers/STM32F4xx_HAL_Driver/Src/stm32f4xx_hal_rcc.c ****       }
 1237              		.loc 1 901 72 is_stmt 0 view .LVU392
 1238 004a 4B68     		ldr	r3, [r1, #4]
 901:Drivers/STM32F4xx_HAL_Driver/Src/stm32f4xx_hal_rcc.c ****       }
 1239              		.loc 1 901 53 view .LVU393
 1240 004c 0648     		ldr	r0, .L136+8
 1241 004e C3F38813 		ubfx	r3, r3, #6, #9
 901:Drivers/STM32F4xx_HAL_Driver/Src/stm32f4xx_hal_rcc.c ****       }
 1242              		.loc 1 901 130 view .LVU394
 1243 0052 A3FB0001 		umull	r0, r1, r3, r0
 1244 0056 0023     		movs	r3, #0
 1245 0058 FFF7FEFF 		bl	__aeabi_uldivmod
 1246              	.LVL99:
 901:Drivers/STM32F4xx_HAL_Driver/Src/stm32f4xx_hal_rcc.c ****       }
 1247              		.loc 1 901 130 view .LVU395
 1248 005c E8E7     		b	.L131
 1249              	.L137:
 1250 005e 00BF     		.align	2
 1251              	.L136:
 1252 0060 00380240 		.word	1073887232
 1253 0064 0024F400 		.word	16000000
 1254 0068 00127A00 		.word	8000000
 1255              	.LBE23:
 1256              	.LBE24:
 1257              		.cfi_endproc
 1258              	.LFE132:
 1260              		.section	.text.HAL_RCC_ClockConfig,"ax",%progbits
 1261              		.align	1
ARM GAS  /tmp/cc8pL1nJ.s 			page 43


 1262              		.p2align 2,,3
 1263              		.global	HAL_RCC_ClockConfig
 1264              		.syntax unified
 1265              		.thumb
 1266              		.thumb_func
 1267              		.fpu fpv4-sp-d16
 1269              	HAL_RCC_ClockConfig:
 1270              	.LVL100:
 1271              	.LFB128:
 582:Drivers/STM32F4xx_HAL_Driver/Src/stm32f4xx_hal_rcc.c ****   uint32_t tickstart;
 1272              		.loc 1 582 1 is_stmt 1 view -0
 1273              		.cfi_startproc
 1274              		@ args = 0, pretend = 0, frame = 0
 1275              		@ frame_needed = 0, uses_anonymous_args = 0
 583:Drivers/STM32F4xx_HAL_Driver/Src/stm32f4xx_hal_rcc.c **** 
 1276              		.loc 1 583 3 view .LVU397
 586:Drivers/STM32F4xx_HAL_Driver/Src/stm32f4xx_hal_rcc.c ****   {
 1277              		.loc 1 586 3 view .LVU398
 586:Drivers/STM32F4xx_HAL_Driver/Src/stm32f4xx_hal_rcc.c ****   {
 1278              		.loc 1 586 5 is_stmt 0 view .LVU399
 1279 0000 60B1     		cbz	r0, .L180
 592:Drivers/STM32F4xx_HAL_Driver/Src/stm32f4xx_hal_rcc.c ****   assert_param(IS_FLASH_LATENCY(FLatency));
 1280              		.loc 1 592 3 is_stmt 1 view .LVU400
 593:Drivers/STM32F4xx_HAL_Driver/Src/stm32f4xx_hal_rcc.c **** 
 1281              		.loc 1 593 3 view .LVU401
 600:Drivers/STM32F4xx_HAL_Driver/Src/stm32f4xx_hal_rcc.c ****   {
 1282              		.loc 1 600 3 view .LVU402
 600:Drivers/STM32F4xx_HAL_Driver/Src/stm32f4xx_hal_rcc.c ****   {
 1283              		.loc 1 600 17 is_stmt 0 view .LVU403
 1284 0002 494A     		ldr	r2, .L184
 1285 0004 1368     		ldr	r3, [r2]
 1286 0006 03F00F03 		and	r3, r3, #15
 600:Drivers/STM32F4xx_HAL_Driver/Src/stm32f4xx_hal_rcc.c ****   {
 1287              		.loc 1 600 5 view .LVU404
 1288 000a 8B42     		cmp	r3, r1
 1289 000c 08D2     		bcs	.L145
 603:Drivers/STM32F4xx_HAL_Driver/Src/stm32f4xx_hal_rcc.c **** 
 1290              		.loc 1 603 5 is_stmt 1 view .LVU405
 1291 000e CBB2     		uxtb	r3, r1
 1292 0010 1370     		strb	r3, [r2]
 607:Drivers/STM32F4xx_HAL_Driver/Src/stm32f4xx_hal_rcc.c ****     {
 1293              		.loc 1 607 5 view .LVU406
 607:Drivers/STM32F4xx_HAL_Driver/Src/stm32f4xx_hal_rcc.c ****     {
 1294              		.loc 1 607 8 is_stmt 0 view .LVU407
 1295 0012 1368     		ldr	r3, [r2]
 1296 0014 03F00F03 		and	r3, r3, #15
 607:Drivers/STM32F4xx_HAL_Driver/Src/stm32f4xx_hal_rcc.c ****     {
 1297              		.loc 1 607 7 view .LVU408
 1298 0018 8B42     		cmp	r3, r1
 1299 001a 01D0     		beq	.L145
 1300              	.L180:
 588:Drivers/STM32F4xx_HAL_Driver/Src/stm32f4xx_hal_rcc.c ****   }
 1301              		.loc 1 588 12 view .LVU409
 1302 001c 0120     		movs	r0, #1
 1303              	.LVL101:
 715:Drivers/STM32F4xx_HAL_Driver/Src/stm32f4xx_hal_rcc.c **** 
 1304              		.loc 1 715 1 view .LVU410
ARM GAS  /tmp/cc8pL1nJ.s 			page 44


 1305 001e 7047     		bx	lr
 1306              	.LVL102:
 1307              	.L145:
 614:Drivers/STM32F4xx_HAL_Driver/Src/stm32f4xx_hal_rcc.c ****   {
 1308              		.loc 1 614 3 is_stmt 1 view .LVU411
 614:Drivers/STM32F4xx_HAL_Driver/Src/stm32f4xx_hal_rcc.c ****   {
 1309              		.loc 1 614 25 is_stmt 0 view .LVU412
 1310 0020 0368     		ldr	r3, [r0]
 582:Drivers/STM32F4xx_HAL_Driver/Src/stm32f4xx_hal_rcc.c ****   uint32_t tickstart;
 1311              		.loc 1 582 1 view .LVU413
 1312 0022 2DE9F041 		push	{r4, r5, r6, r7, r8, lr}
 1313              	.LCFI16:
 1314              		.cfi_def_cfa_offset 24
 1315              		.cfi_offset 4, -24
 1316              		.cfi_offset 5, -20
 1317              		.cfi_offset 6, -16
 1318              		.cfi_offset 7, -12
 1319              		.cfi_offset 8, -8
 1320              		.cfi_offset 14, -4
 614:Drivers/STM32F4xx_HAL_Driver/Src/stm32f4xx_hal_rcc.c ****   {
 1321              		.loc 1 614 5 view .LVU414
 1322 0026 9C07     		lsls	r4, r3, #30
 1323 0028 14D5     		bpl	.L143
 618:Drivers/STM32F4xx_HAL_Driver/Src/stm32f4xx_hal_rcc.c ****     {
 1324              		.loc 1 618 5 is_stmt 1 view .LVU415
 618:Drivers/STM32F4xx_HAL_Driver/Src/stm32f4xx_hal_rcc.c ****     {
 1325              		.loc 1 618 7 is_stmt 0 view .LVU416
 1326 002a 5A07     		lsls	r2, r3, #29
 1327 002c 04D5     		bpl	.L146
 620:Drivers/STM32F4xx_HAL_Driver/Src/stm32f4xx_hal_rcc.c ****     }
 1328              		.loc 1 620 7 is_stmt 1 view .LVU417
 1329 002e 3F4C     		ldr	r4, .L184+4
 1330 0030 A268     		ldr	r2, [r4, #8]
 1331 0032 42F4E052 		orr	r2, r2, #7168
 1332 0036 A260     		str	r2, [r4, #8]
 1333              	.L146:
 623:Drivers/STM32F4xx_HAL_Driver/Src/stm32f4xx_hal_rcc.c ****     {
 1334              		.loc 1 623 5 view .LVU418
 623:Drivers/STM32F4xx_HAL_Driver/Src/stm32f4xx_hal_rcc.c ****     {
 1335              		.loc 1 623 7 is_stmt 0 view .LVU419
 1336 0038 1F07     		lsls	r7, r3, #28
 1337 003a 04D5     		bpl	.L147
 625:Drivers/STM32F4xx_HAL_Driver/Src/stm32f4xx_hal_rcc.c ****     }
 1338              		.loc 1 625 7 is_stmt 1 view .LVU420
 1339 003c 3B4C     		ldr	r4, .L184+4
 1340 003e A268     		ldr	r2, [r4, #8]
 1341 0040 42F46042 		orr	r2, r2, #57344
 1342 0044 A260     		str	r2, [r4, #8]
 1343              	.L147:
 628:Drivers/STM32F4xx_HAL_Driver/Src/stm32f4xx_hal_rcc.c ****     MODIFY_REG(RCC->CFGR, RCC_CFGR_HPRE, RCC_ClkInitStruct->AHBCLKDivider);
 1344              		.loc 1 628 5 view .LVU421
 629:Drivers/STM32F4xx_HAL_Driver/Src/stm32f4xx_hal_rcc.c ****   }
 1345              		.loc 1 629 5 view .LVU422
 1346 0046 394C     		ldr	r4, .L184+4
 1347 0048 8568     		ldr	r5, [r0, #8]
 1348 004a A268     		ldr	r2, [r4, #8]
 1349 004c 22F0F002 		bic	r2, r2, #240
ARM GAS  /tmp/cc8pL1nJ.s 			page 45


 1350 0050 2A43     		orrs	r2, r2, r5
 1351 0052 A260     		str	r2, [r4, #8]
 1352              	.L143:
 633:Drivers/STM32F4xx_HAL_Driver/Src/stm32f4xx_hal_rcc.c ****   {
 1353              		.loc 1 633 3 view .LVU423
 633:Drivers/STM32F4xx_HAL_Driver/Src/stm32f4xx_hal_rcc.c ****   {
 1354              		.loc 1 633 5 is_stmt 0 view .LVU424
 1355 0054 DE07     		lsls	r6, r3, #31
 1356 0056 8046     		mov	r8, r0
 1357 0058 0C46     		mov	r4, r1
 1358 005a 22D5     		bpl	.L156
 635:Drivers/STM32F4xx_HAL_Driver/Src/stm32f4xx_hal_rcc.c **** 
 1359              		.loc 1 635 5 is_stmt 1 view .LVU425
 638:Drivers/STM32F4xx_HAL_Driver/Src/stm32f4xx_hal_rcc.c ****     {
 1360              		.loc 1 638 5 view .LVU426
 638:Drivers/STM32F4xx_HAL_Driver/Src/stm32f4xx_hal_rcc.c ****     {
 1361              		.loc 1 638 25 is_stmt 0 view .LVU427
 1362 005c 4268     		ldr	r2, [r0, #4]
 638:Drivers/STM32F4xx_HAL_Driver/Src/stm32f4xx_hal_rcc.c ****     {
 1363              		.loc 1 638 7 view .LVU428
 1364 005e 012A     		cmp	r2, #1
 1365 0060 5BD0     		beq	.L182
 647:Drivers/STM32F4xx_HAL_Driver/Src/stm32f4xx_hal_rcc.c ****             (RCC_ClkInitStruct->SYSCLKSource == RCC_SYSCLKSOURCE_PLLRCLK))
 1366              		.loc 1 647 10 is_stmt 1 view .LVU429
 647:Drivers/STM32F4xx_HAL_Driver/Src/stm32f4xx_hal_rcc.c ****             (RCC_ClkInitStruct->SYSCLKSource == RCC_SYSCLKSOURCE_PLLRCLK))
 1367              		.loc 1 647 76 is_stmt 0 view .LVU430
 1368 0062 931E     		subs	r3, r2, #2
 647:Drivers/STM32F4xx_HAL_Driver/Src/stm32f4xx_hal_rcc.c ****             (RCC_ClkInitStruct->SYSCLKSource == RCC_SYSCLKSOURCE_PLLRCLK))
 1369              		.loc 1 647 12 view .LVU431
 1370 0064 012B     		cmp	r3, #1
 651:Drivers/STM32F4xx_HAL_Driver/Src/stm32f4xx_hal_rcc.c ****       {
 1371              		.loc 1 651 10 view .LVU432
 1372 0066 314B     		ldr	r3, .L184+4
 1373 0068 1B68     		ldr	r3, [r3]
 647:Drivers/STM32F4xx_HAL_Driver/Src/stm32f4xx_hal_rcc.c ****             (RCC_ClkInitStruct->SYSCLKSource == RCC_SYSCLKSOURCE_PLLRCLK))
 1374              		.loc 1 647 12 view .LVU433
 1375 006a 53D9     		bls	.L183
 660:Drivers/STM32F4xx_HAL_Driver/Src/stm32f4xx_hal_rcc.c ****       {
 1376              		.loc 1 660 7 is_stmt 1 view .LVU434
 660:Drivers/STM32F4xx_HAL_Driver/Src/stm32f4xx_hal_rcc.c ****       {
 1377              		.loc 1 660 9 is_stmt 0 view .LVU435
 1378 006c 9907     		lsls	r1, r3, #30
 1379              	.LVL103:
 660:Drivers/STM32F4xx_HAL_Driver/Src/stm32f4xx_hal_rcc.c ****       {
 1380              		.loc 1 660 9 view .LVU436
 1381 006e 25D5     		bpl	.L144
 1382              	.LVL104:
 1383              	.L152:
 666:Drivers/STM32F4xx_HAL_Driver/Src/stm32f4xx_hal_rcc.c **** 
 1384              		.loc 1 666 5 is_stmt 1 view .LVU437
 1385 0070 2E4D     		ldr	r5, .L184+4
 1386 0072 AB68     		ldr	r3, [r5, #8]
 1387 0074 23F00303 		bic	r3, r3, #3
 1388 0078 1343     		orrs	r3, r3, r2
 1389 007a AB60     		str	r3, [r5, #8]
 669:Drivers/STM32F4xx_HAL_Driver/Src/stm32f4xx_hal_rcc.c **** 
 1390              		.loc 1 669 5 view .LVU438
ARM GAS  /tmp/cc8pL1nJ.s 			page 46


 669:Drivers/STM32F4xx_HAL_Driver/Src/stm32f4xx_hal_rcc.c **** 
 1391              		.loc 1 669 17 is_stmt 0 view .LVU439
 1392 007c FFF7FEFF 		bl	HAL_GetTick
 1393              	.LVL105:
 673:Drivers/STM32F4xx_HAL_Driver/Src/stm32f4xx_hal_rcc.c ****       {
 1394              		.loc 1 673 10 view .LVU440
 1395 0080 41F28836 		movw	r6, #5000
 669:Drivers/STM32F4xx_HAL_Driver/Src/stm32f4xx_hal_rcc.c **** 
 1396              		.loc 1 669 17 view .LVU441
 1397 0084 0746     		mov	r7, r0
 1398              	.LVL106:
 671:Drivers/STM32F4xx_HAL_Driver/Src/stm32f4xx_hal_rcc.c ****     {
 1399              		.loc 1 671 5 is_stmt 1 view .LVU442
 671:Drivers/STM32F4xx_HAL_Driver/Src/stm32f4xx_hal_rcc.c ****     {
 1400              		.loc 1 671 11 is_stmt 0 view .LVU443
 1401 0086 04E0     		b	.L154
 1402              	.LVL107:
 1403              	.L155:
 673:Drivers/STM32F4xx_HAL_Driver/Src/stm32f4xx_hal_rcc.c ****       {
 1404              		.loc 1 673 12 view .LVU444
 1405 0088 FFF7FEFF 		bl	HAL_GetTick
 1406              	.LVL108:
 673:Drivers/STM32F4xx_HAL_Driver/Src/stm32f4xx_hal_rcc.c ****       {
 1407              		.loc 1 673 26 view .LVU445
 1408 008c C01B     		subs	r0, r0, r7
 673:Drivers/STM32F4xx_HAL_Driver/Src/stm32f4xx_hal_rcc.c ****       {
 1409              		.loc 1 673 10 view .LVU446
 1410 008e B042     		cmp	r0, r6
 1411 0090 48D8     		bhi	.L160
 1412              	.L154:
 673:Drivers/STM32F4xx_HAL_Driver/Src/stm32f4xx_hal_rcc.c ****       {
 1413              		.loc 1 673 7 is_stmt 1 view .LVU447
 671:Drivers/STM32F4xx_HAL_Driver/Src/stm32f4xx_hal_rcc.c ****     {
 1414              		.loc 1 671 12 is_stmt 0 view .LVU448
 1415 0092 AB68     		ldr	r3, [r5, #8]
 671:Drivers/STM32F4xx_HAL_Driver/Src/stm32f4xx_hal_rcc.c ****     {
 1416              		.loc 1 671 78 view .LVU449
 1417 0094 D8F80420 		ldr	r2, [r8, #4]
 671:Drivers/STM32F4xx_HAL_Driver/Src/stm32f4xx_hal_rcc.c ****     {
 1418              		.loc 1 671 12 view .LVU450
 1419 0098 03F00C03 		and	r3, r3, #12
 671:Drivers/STM32F4xx_HAL_Driver/Src/stm32f4xx_hal_rcc.c ****     {
 1420              		.loc 1 671 11 view .LVU451
 1421 009c B3EB820F 		cmp	r3, r2, lsl #2
 1422 00a0 F2D1     		bne	.L155
 1423              	.LVL109:
 1424              	.L156:
 681:Drivers/STM32F4xx_HAL_Driver/Src/stm32f4xx_hal_rcc.c ****   {
 1425              		.loc 1 681 3 is_stmt 1 view .LVU452
 681:Drivers/STM32F4xx_HAL_Driver/Src/stm32f4xx_hal_rcc.c ****   {
 1426              		.loc 1 681 17 is_stmt 0 view .LVU453
 1427 00a2 214A     		ldr	r2, .L184
 1428 00a4 1368     		ldr	r3, [r2]
 1429 00a6 03F00F03 		and	r3, r3, #15
 681:Drivers/STM32F4xx_HAL_Driver/Src/stm32f4xx_hal_rcc.c ****   {
 1430              		.loc 1 681 5 view .LVU454
 1431 00aa A342     		cmp	r3, r4
ARM GAS  /tmp/cc8pL1nJ.s 			page 47


 1432 00ac 09D9     		bls	.L150
 684:Drivers/STM32F4xx_HAL_Driver/Src/stm32f4xx_hal_rcc.c **** 
 1433              		.loc 1 684 5 is_stmt 1 view .LVU455
 1434 00ae E3B2     		uxtb	r3, r4
 1435 00b0 1370     		strb	r3, [r2]
 688:Drivers/STM32F4xx_HAL_Driver/Src/stm32f4xx_hal_rcc.c ****     {
 1436              		.loc 1 688 5 view .LVU456
 688:Drivers/STM32F4xx_HAL_Driver/Src/stm32f4xx_hal_rcc.c ****     {
 1437              		.loc 1 688 8 is_stmt 0 view .LVU457
 1438 00b2 1368     		ldr	r3, [r2]
 1439 00b4 03F00F03 		and	r3, r3, #15
 688:Drivers/STM32F4xx_HAL_Driver/Src/stm32f4xx_hal_rcc.c ****     {
 1440              		.loc 1 688 7 view .LVU458
 1441 00b8 A342     		cmp	r3, r4
 1442 00ba 02D0     		beq	.L150
 1443              	.L144:
 588:Drivers/STM32F4xx_HAL_Driver/Src/stm32f4xx_hal_rcc.c ****   }
 1444              		.loc 1 588 12 view .LVU459
 1445 00bc 0120     		movs	r0, #1
 1446              	.L140:
 715:Drivers/STM32F4xx_HAL_Driver/Src/stm32f4xx_hal_rcc.c **** 
 1447              		.loc 1 715 1 view .LVU460
 1448 00be BDE8F081 		pop	{r4, r5, r6, r7, r8, pc}
 1449              	.LVL110:
 1450              	.L150:
 695:Drivers/STM32F4xx_HAL_Driver/Src/stm32f4xx_hal_rcc.c ****   {
 1451              		.loc 1 695 3 is_stmt 1 view .LVU461
 695:Drivers/STM32F4xx_HAL_Driver/Src/stm32f4xx_hal_rcc.c ****   {
 1452              		.loc 1 695 25 is_stmt 0 view .LVU462
 1453 00c2 D8F80030 		ldr	r3, [r8]
 695:Drivers/STM32F4xx_HAL_Driver/Src/stm32f4xx_hal_rcc.c ****   {
 1454              		.loc 1 695 5 view .LVU463
 1455 00c6 5A07     		lsls	r2, r3, #29
 1456 00c8 07D5     		bpl	.L158
 697:Drivers/STM32F4xx_HAL_Driver/Src/stm32f4xx_hal_rcc.c ****     MODIFY_REG(RCC->CFGR, RCC_CFGR_PPRE1, RCC_ClkInitStruct->APB1CLKDivider);
 1457              		.loc 1 697 5 is_stmt 1 view .LVU464
 698:Drivers/STM32F4xx_HAL_Driver/Src/stm32f4xx_hal_rcc.c ****   }
 1458              		.loc 1 698 5 view .LVU465
 1459 00ca 1849     		ldr	r1, .L184+4
 1460 00cc D8F80C00 		ldr	r0, [r8, #12]
 1461 00d0 8A68     		ldr	r2, [r1, #8]
 1462 00d2 22F4E052 		bic	r2, r2, #7168
 1463 00d6 0243     		orrs	r2, r2, r0
 1464 00d8 8A60     		str	r2, [r1, #8]
 1465              	.L158:
 702:Drivers/STM32F4xx_HAL_Driver/Src/stm32f4xx_hal_rcc.c ****   {
 1466              		.loc 1 702 3 view .LVU466
 702:Drivers/STM32F4xx_HAL_Driver/Src/stm32f4xx_hal_rcc.c ****   {
 1467              		.loc 1 702 5 is_stmt 0 view .LVU467
 1468 00da 1B07     		lsls	r3, r3, #28
 1469 00dc 08D5     		bpl	.L159
 704:Drivers/STM32F4xx_HAL_Driver/Src/stm32f4xx_hal_rcc.c ****     MODIFY_REG(RCC->CFGR, RCC_CFGR_PPRE2, ((RCC_ClkInitStruct->APB2CLKDivider) << 3U));
 1470              		.loc 1 704 5 is_stmt 1 view .LVU468
 705:Drivers/STM32F4xx_HAL_Driver/Src/stm32f4xx_hal_rcc.c ****   }
 1471              		.loc 1 705 5 view .LVU469
 1472 00de 134A     		ldr	r2, .L184+4
 1473 00e0 D8F81010 		ldr	r1, [r8, #16]
ARM GAS  /tmp/cc8pL1nJ.s 			page 48


 1474 00e4 9368     		ldr	r3, [r2, #8]
 1475 00e6 23F46043 		bic	r3, r3, #57344
 1476 00ea 43EAC103 		orr	r3, r3, r1, lsl #3
 1477 00ee 9360     		str	r3, [r2, #8]
 1478              	.L159:
 709:Drivers/STM32F4xx_HAL_Driver/Src/stm32f4xx_hal_rcc.c **** 
 1479              		.loc 1 709 3 view .LVU470
 709:Drivers/STM32F4xx_HAL_Driver/Src/stm32f4xx_hal_rcc.c **** 
 1480              		.loc 1 709 21 is_stmt 0 view .LVU471
 1481 00f0 FFF7FEFF 		bl	HAL_RCC_GetSysClockFreq
 1482              	.LVL111:
 709:Drivers/STM32F4xx_HAL_Driver/Src/stm32f4xx_hal_rcc.c **** 
 1483              		.loc 1 709 68 view .LVU472
 1484 00f4 0D4B     		ldr	r3, .L184+4
 709:Drivers/STM32F4xx_HAL_Driver/Src/stm32f4xx_hal_rcc.c **** 
 1485              		.loc 1 709 63 view .LVU473
 1486 00f6 0E49     		ldr	r1, .L184+8
 709:Drivers/STM32F4xx_HAL_Driver/Src/stm32f4xx_hal_rcc.c **** 
 1487              		.loc 1 709 68 view .LVU474
 1488 00f8 9B68     		ldr	r3, [r3, #8]
 709:Drivers/STM32F4xx_HAL_Driver/Src/stm32f4xx_hal_rcc.c **** 
 1489              		.loc 1 709 19 view .LVU475
 1490 00fa 0E4A     		ldr	r2, .L184+12
 709:Drivers/STM32F4xx_HAL_Driver/Src/stm32f4xx_hal_rcc.c **** 
 1491              		.loc 1 709 91 view .LVU476
 1492 00fc C3F30313 		ubfx	r3, r3, #4, #4
 709:Drivers/STM32F4xx_HAL_Driver/Src/stm32f4xx_hal_rcc.c **** 
 1493              		.loc 1 709 63 view .LVU477
 1494 0100 CB5C     		ldrb	r3, [r1, r3]	@ zero_extendqisi2
 709:Drivers/STM32F4xx_HAL_Driver/Src/stm32f4xx_hal_rcc.c **** 
 1495              		.loc 1 709 47 view .LVU478
 1496 0102 20FA03F3 		lsr	r3, r0, r3
 712:Drivers/STM32F4xx_HAL_Driver/Src/stm32f4xx_hal_rcc.c **** 
 1497              		.loc 1 712 3 view .LVU479
 1498 0106 0020     		movs	r0, #0
 709:Drivers/STM32F4xx_HAL_Driver/Src/stm32f4xx_hal_rcc.c **** 
 1499              		.loc 1 709 19 view .LVU480
 1500 0108 1360     		str	r3, [r2]
 712:Drivers/STM32F4xx_HAL_Driver/Src/stm32f4xx_hal_rcc.c **** 
 1501              		.loc 1 712 3 is_stmt 1 view .LVU481
 1502 010a FFF7FEFF 		bl	HAL_InitTick
 1503              	.LVL112:
 714:Drivers/STM32F4xx_HAL_Driver/Src/stm32f4xx_hal_rcc.c **** }
 1504              		.loc 1 714 3 view .LVU482
 714:Drivers/STM32F4xx_HAL_Driver/Src/stm32f4xx_hal_rcc.c **** }
 1505              		.loc 1 714 10 is_stmt 0 view .LVU483
 1506 010e 0020     		movs	r0, #0
 715:Drivers/STM32F4xx_HAL_Driver/Src/stm32f4xx_hal_rcc.c **** 
 1507              		.loc 1 715 1 view .LVU484
 1508 0110 BDE8F081 		pop	{r4, r5, r6, r7, r8, pc}
 1509              	.LVL113:
 1510              	.L183:
 651:Drivers/STM32F4xx_HAL_Driver/Src/stm32f4xx_hal_rcc.c ****       {
 1511              		.loc 1 651 7 is_stmt 1 view .LVU485
 651:Drivers/STM32F4xx_HAL_Driver/Src/stm32f4xx_hal_rcc.c ****       {
 1512              		.loc 1 651 9 is_stmt 0 view .LVU486
 1513 0114 9801     		lsls	r0, r3, #6
ARM GAS  /tmp/cc8pL1nJ.s 			page 49


 1514              	.LVL114:
 651:Drivers/STM32F4xx_HAL_Driver/Src/stm32f4xx_hal_rcc.c ****       {
 1515              		.loc 1 651 9 view .LVU487
 1516 0116 ABD4     		bmi	.L152
 1517 0118 D0E7     		b	.L144
 1518              	.LVL115:
 1519              	.L182:
 641:Drivers/STM32F4xx_HAL_Driver/Src/stm32f4xx_hal_rcc.c ****       {
 1520              		.loc 1 641 7 is_stmt 1 view .LVU488
 641:Drivers/STM32F4xx_HAL_Driver/Src/stm32f4xx_hal_rcc.c ****       {
 1521              		.loc 1 641 10 is_stmt 0 view .LVU489
 1522 011a 044B     		ldr	r3, .L184+4
 1523 011c 1B68     		ldr	r3, [r3]
 641:Drivers/STM32F4xx_HAL_Driver/Src/stm32f4xx_hal_rcc.c ****       {
 1524              		.loc 1 641 9 view .LVU490
 1525 011e 9D03     		lsls	r5, r3, #14
 1526 0120 A6D4     		bmi	.L152
 1527 0122 CBE7     		b	.L144
 1528              	.LVL116:
 1529              	.L160:
 675:Drivers/STM32F4xx_HAL_Driver/Src/stm32f4xx_hal_rcc.c ****       }
 1530              		.loc 1 675 16 view .LVU491
 1531 0124 0320     		movs	r0, #3
 1532 0126 CAE7     		b	.L140
 1533              	.L185:
 1534              		.align	2
 1535              	.L184:
 1536 0128 003C0240 		.word	1073888256
 1537 012c 00380240 		.word	1073887232
 1538 0130 00000000 		.word	AHBPrescTable
 1539 0134 00000000 		.word	SystemCoreClock
 1540              		.cfi_endproc
 1541              	.LFE128:
 1543              		.section	.text.HAL_RCC_GetHCLKFreq,"ax",%progbits
 1544              		.align	1
 1545              		.p2align 2,,3
 1546              		.global	HAL_RCC_GetHCLKFreq
 1547              		.syntax unified
 1548              		.thumb
 1549              		.thumb_func
 1550              		.fpu fpv4-sp-d16
 1552              	HAL_RCC_GetHCLKFreq:
 1553              	.LFB133:
 921:Drivers/STM32F4xx_HAL_Driver/Src/stm32f4xx_hal_rcc.c **** 
 922:Drivers/STM32F4xx_HAL_Driver/Src/stm32f4xx_hal_rcc.c **** /**
 923:Drivers/STM32F4xx_HAL_Driver/Src/stm32f4xx_hal_rcc.c ****   * @brief  Returns the HCLK frequency
 924:Drivers/STM32F4xx_HAL_Driver/Src/stm32f4xx_hal_rcc.c ****   * @note   Each time HCLK changes, this function must be called to update the
 925:Drivers/STM32F4xx_HAL_Driver/Src/stm32f4xx_hal_rcc.c ****   *         right HCLK value. Otherwise, any configuration based on this function will be incorrect
 926:Drivers/STM32F4xx_HAL_Driver/Src/stm32f4xx_hal_rcc.c ****   *
 927:Drivers/STM32F4xx_HAL_Driver/Src/stm32f4xx_hal_rcc.c ****   * @note   The SystemCoreClock CMSIS variable is used to store System Clock Frequency
 928:Drivers/STM32F4xx_HAL_Driver/Src/stm32f4xx_hal_rcc.c ****   *         and updated within this function
 929:Drivers/STM32F4xx_HAL_Driver/Src/stm32f4xx_hal_rcc.c ****   * @retval HCLK frequency
 930:Drivers/STM32F4xx_HAL_Driver/Src/stm32f4xx_hal_rcc.c ****   */
 931:Drivers/STM32F4xx_HAL_Driver/Src/stm32f4xx_hal_rcc.c **** uint32_t HAL_RCC_GetHCLKFreq(void)
 932:Drivers/STM32F4xx_HAL_Driver/Src/stm32f4xx_hal_rcc.c **** {
 1554              		.loc 1 932 1 is_stmt 1 view -0
 1555              		.cfi_startproc
ARM GAS  /tmp/cc8pL1nJ.s 			page 50


 1556              		@ args = 0, pretend = 0, frame = 0
 1557              		@ frame_needed = 0, uses_anonymous_args = 0
 1558              		@ link register save eliminated.
 933:Drivers/STM32F4xx_HAL_Driver/Src/stm32f4xx_hal_rcc.c ****   return SystemCoreClock;
 1559              		.loc 1 933 3 view .LVU493
 1560              		.loc 1 933 10 is_stmt 0 view .LVU494
 1561 0000 014B     		ldr	r3, .L187
 934:Drivers/STM32F4xx_HAL_Driver/Src/stm32f4xx_hal_rcc.c **** }
 1562              		.loc 1 934 1 view .LVU495
 1563 0002 1868     		ldr	r0, [r3]
 1564 0004 7047     		bx	lr
 1565              	.L188:
 1566 0006 00BF     		.align	2
 1567              	.L187:
 1568 0008 00000000 		.word	SystemCoreClock
 1569              		.cfi_endproc
 1570              	.LFE133:
 1572              		.section	.text.HAL_RCC_GetPCLK1Freq,"ax",%progbits
 1573              		.align	1
 1574              		.p2align 2,,3
 1575              		.global	HAL_RCC_GetPCLK1Freq
 1576              		.syntax unified
 1577              		.thumb
 1578              		.thumb_func
 1579              		.fpu fpv4-sp-d16
 1581              	HAL_RCC_GetPCLK1Freq:
 1582              	.LFB134:
 935:Drivers/STM32F4xx_HAL_Driver/Src/stm32f4xx_hal_rcc.c **** 
 936:Drivers/STM32F4xx_HAL_Driver/Src/stm32f4xx_hal_rcc.c **** /**
 937:Drivers/STM32F4xx_HAL_Driver/Src/stm32f4xx_hal_rcc.c ****   * @brief  Returns the PCLK1 frequency
 938:Drivers/STM32F4xx_HAL_Driver/Src/stm32f4xx_hal_rcc.c ****   * @note   Each time PCLK1 changes, this function must be called to update the
 939:Drivers/STM32F4xx_HAL_Driver/Src/stm32f4xx_hal_rcc.c ****   *         right PCLK1 value. Otherwise, any configuration based on this function will be incorrec
 940:Drivers/STM32F4xx_HAL_Driver/Src/stm32f4xx_hal_rcc.c ****   * @retval PCLK1 frequency
 941:Drivers/STM32F4xx_HAL_Driver/Src/stm32f4xx_hal_rcc.c ****   */
 942:Drivers/STM32F4xx_HAL_Driver/Src/stm32f4xx_hal_rcc.c **** uint32_t HAL_RCC_GetPCLK1Freq(void)
 943:Drivers/STM32F4xx_HAL_Driver/Src/stm32f4xx_hal_rcc.c **** {
 1583              		.loc 1 943 1 is_stmt 1 view -0
 1584              		.cfi_startproc
 1585              		@ args = 0, pretend = 0, frame = 0
 1586              		@ frame_needed = 0, uses_anonymous_args = 0
 1587              		@ link register save eliminated.
 944:Drivers/STM32F4xx_HAL_Driver/Src/stm32f4xx_hal_rcc.c ****   /* Get HCLK source and Compute PCLK1 frequency ---------------------------*/
 945:Drivers/STM32F4xx_HAL_Driver/Src/stm32f4xx_hal_rcc.c ****   return (HAL_RCC_GetHCLKFreq() >> APBPrescTable[(RCC->CFGR & RCC_CFGR_PPRE1)>> RCC_CFGR_PPRE1_Pos]
 1588              		.loc 1 945 3 view .LVU497
 1589              	.LBB25:
 1590              	.LBI25:
 931:Drivers/STM32F4xx_HAL_Driver/Src/stm32f4xx_hal_rcc.c **** {
 1591              		.loc 1 931 10 view .LVU498
 1592              	.LBB26:
 933:Drivers/STM32F4xx_HAL_Driver/Src/stm32f4xx_hal_rcc.c **** }
 1593              		.loc 1 933 3 view .LVU499
 1594              	.LBE26:
 1595              	.LBE25:
 1596              		.loc 1 945 54 is_stmt 0 view .LVU500
 1597 0000 044B     		ldr	r3, .L190
 1598              		.loc 1 945 49 view .LVU501
 1599 0002 054A     		ldr	r2, .L190+4
ARM GAS  /tmp/cc8pL1nJ.s 			page 51


 1600              		.loc 1 945 54 view .LVU502
 1601 0004 9B68     		ldr	r3, [r3, #8]
 1602              	.LBB28:
 1603              	.LBB27:
 933:Drivers/STM32F4xx_HAL_Driver/Src/stm32f4xx_hal_rcc.c **** }
 1604              		.loc 1 933 10 view .LVU503
 1605 0006 0549     		ldr	r1, .L190+8
 1606              	.LBE27:
 1607              	.LBE28:
 1608              		.loc 1 945 78 view .LVU504
 1609 0008 C3F38223 		ubfx	r3, r3, #10, #3
 1610              		.loc 1 945 33 view .LVU505
 1611 000c 0868     		ldr	r0, [r1]
 1612              		.loc 1 945 49 view .LVU506
 1613 000e D35C     		ldrb	r3, [r2, r3]	@ zero_extendqisi2
 946:Drivers/STM32F4xx_HAL_Driver/Src/stm32f4xx_hal_rcc.c **** }
 1614              		.loc 1 946 1 view .LVU507
 1615 0010 D840     		lsrs	r0, r0, r3
 1616 0012 7047     		bx	lr
 1617              	.L191:
 1618              		.align	2
 1619              	.L190:
 1620 0014 00380240 		.word	1073887232
 1621 0018 00000000 		.word	APBPrescTable
 1622 001c 00000000 		.word	SystemCoreClock
 1623              		.cfi_endproc
 1624              	.LFE134:
 1626              		.section	.text.HAL_RCC_GetPCLK2Freq,"ax",%progbits
 1627              		.align	1
 1628              		.p2align 2,,3
 1629              		.global	HAL_RCC_GetPCLK2Freq
 1630              		.syntax unified
 1631              		.thumb
 1632              		.thumb_func
 1633              		.fpu fpv4-sp-d16
 1635              	HAL_RCC_GetPCLK2Freq:
 1636              	.LFB135:
 947:Drivers/STM32F4xx_HAL_Driver/Src/stm32f4xx_hal_rcc.c **** 
 948:Drivers/STM32F4xx_HAL_Driver/Src/stm32f4xx_hal_rcc.c **** /**
 949:Drivers/STM32F4xx_HAL_Driver/Src/stm32f4xx_hal_rcc.c ****   * @brief  Returns the PCLK2 frequency
 950:Drivers/STM32F4xx_HAL_Driver/Src/stm32f4xx_hal_rcc.c ****   * @note   Each time PCLK2 changes, this function must be called to update the
 951:Drivers/STM32F4xx_HAL_Driver/Src/stm32f4xx_hal_rcc.c ****   *         right PCLK2 value. Otherwise, any configuration based on this function will be incorrec
 952:Drivers/STM32F4xx_HAL_Driver/Src/stm32f4xx_hal_rcc.c ****   * @retval PCLK2 frequency
 953:Drivers/STM32F4xx_HAL_Driver/Src/stm32f4xx_hal_rcc.c ****   */
 954:Drivers/STM32F4xx_HAL_Driver/Src/stm32f4xx_hal_rcc.c **** uint32_t HAL_RCC_GetPCLK2Freq(void)
 955:Drivers/STM32F4xx_HAL_Driver/Src/stm32f4xx_hal_rcc.c **** {
 1637              		.loc 1 955 1 is_stmt 1 view -0
 1638              		.cfi_startproc
 1639              		@ args = 0, pretend = 0, frame = 0
 1640              		@ frame_needed = 0, uses_anonymous_args = 0
 1641              		@ link register save eliminated.
 956:Drivers/STM32F4xx_HAL_Driver/Src/stm32f4xx_hal_rcc.c ****   /* Get HCLK source and Compute PCLK2 frequency ---------------------------*/
 957:Drivers/STM32F4xx_HAL_Driver/Src/stm32f4xx_hal_rcc.c ****   return (HAL_RCC_GetHCLKFreq()>> APBPrescTable[(RCC->CFGR & RCC_CFGR_PPRE2)>> RCC_CFGR_PPRE2_Pos])
 1642              		.loc 1 957 3 view .LVU509
 1643              	.LBB29:
 1644              	.LBI29:
 931:Drivers/STM32F4xx_HAL_Driver/Src/stm32f4xx_hal_rcc.c **** {
ARM GAS  /tmp/cc8pL1nJ.s 			page 52


 1645              		.loc 1 931 10 view .LVU510
 1646              	.LBB30:
 933:Drivers/STM32F4xx_HAL_Driver/Src/stm32f4xx_hal_rcc.c **** }
 1647              		.loc 1 933 3 view .LVU511
 1648              	.LBE30:
 1649              	.LBE29:
 1650              		.loc 1 957 53 is_stmt 0 view .LVU512
 1651 0000 044B     		ldr	r3, .L193
 1652              		.loc 1 957 48 view .LVU513
 1653 0002 054A     		ldr	r2, .L193+4
 1654              		.loc 1 957 53 view .LVU514
 1655 0004 9B68     		ldr	r3, [r3, #8]
 1656              	.LBB32:
 1657              	.LBB31:
 933:Drivers/STM32F4xx_HAL_Driver/Src/stm32f4xx_hal_rcc.c **** }
 1658              		.loc 1 933 10 view .LVU515
 1659 0006 0549     		ldr	r1, .L193+8
 1660              	.LBE31:
 1661              	.LBE32:
 1662              		.loc 1 957 77 view .LVU516
 1663 0008 C3F34233 		ubfx	r3, r3, #13, #3
 1664              		.loc 1 957 32 view .LVU517
 1665 000c 0868     		ldr	r0, [r1]
 1666              		.loc 1 957 48 view .LVU518
 1667 000e D35C     		ldrb	r3, [r2, r3]	@ zero_extendqisi2
 958:Drivers/STM32F4xx_HAL_Driver/Src/stm32f4xx_hal_rcc.c **** }
 1668              		.loc 1 958 1 view .LVU519
 1669 0010 D840     		lsrs	r0, r0, r3
 1670 0012 7047     		bx	lr
 1671              	.L194:
 1672              		.align	2
 1673              	.L193:
 1674 0014 00380240 		.word	1073887232
 1675 0018 00000000 		.word	APBPrescTable
 1676 001c 00000000 		.word	SystemCoreClock
 1677              		.cfi_endproc
 1678              	.LFE135:
 1680              		.section	.text.HAL_RCC_GetOscConfig,"ax",%progbits
 1681              		.align	1
 1682              		.p2align 2,,3
 1683              		.weak	HAL_RCC_GetOscConfig
 1684              		.syntax unified
 1685              		.thumb
 1686              		.thumb_func
 1687              		.fpu fpv4-sp-d16
 1689              	HAL_RCC_GetOscConfig:
 1690              	.LVL117:
 1691              	.LFB136:
 959:Drivers/STM32F4xx_HAL_Driver/Src/stm32f4xx_hal_rcc.c **** 
 960:Drivers/STM32F4xx_HAL_Driver/Src/stm32f4xx_hal_rcc.c **** /**
 961:Drivers/STM32F4xx_HAL_Driver/Src/stm32f4xx_hal_rcc.c ****   * @brief  Configures the RCC_OscInitStruct according to the internal
 962:Drivers/STM32F4xx_HAL_Driver/Src/stm32f4xx_hal_rcc.c ****   * RCC configuration registers.
 963:Drivers/STM32F4xx_HAL_Driver/Src/stm32f4xx_hal_rcc.c ****   * @param  RCC_OscInitStruct pointer to an RCC_OscInitTypeDef structure that
 964:Drivers/STM32F4xx_HAL_Driver/Src/stm32f4xx_hal_rcc.c ****   * will be configured.
 965:Drivers/STM32F4xx_HAL_Driver/Src/stm32f4xx_hal_rcc.c ****   * @retval None
 966:Drivers/STM32F4xx_HAL_Driver/Src/stm32f4xx_hal_rcc.c ****   */
 967:Drivers/STM32F4xx_HAL_Driver/Src/stm32f4xx_hal_rcc.c **** __weak void HAL_RCC_GetOscConfig(RCC_OscInitTypeDef  *RCC_OscInitStruct)
ARM GAS  /tmp/cc8pL1nJ.s 			page 53


 968:Drivers/STM32F4xx_HAL_Driver/Src/stm32f4xx_hal_rcc.c **** {
 1692              		.loc 1 968 1 is_stmt 1 view -0
 1693              		.cfi_startproc
 1694              		@ args = 0, pretend = 0, frame = 0
 1695              		@ frame_needed = 0, uses_anonymous_args = 0
 1696              		@ link register save eliminated.
 969:Drivers/STM32F4xx_HAL_Driver/Src/stm32f4xx_hal_rcc.c ****   /* Set all possible values for the Oscillator type parameter ---------------*/
 970:Drivers/STM32F4xx_HAL_Driver/Src/stm32f4xx_hal_rcc.c ****   RCC_OscInitStruct->OscillatorType = RCC_OSCILLATORTYPE_HSE | RCC_OSCILLATORTYPE_HSI | RCC_OSCILLA
 1697              		.loc 1 970 3 view .LVU521
 1698              		.loc 1 970 37 is_stmt 0 view .LVU522
 1699 0000 0F22     		movs	r2, #15
 971:Drivers/STM32F4xx_HAL_Driver/Src/stm32f4xx_hal_rcc.c **** 
 972:Drivers/STM32F4xx_HAL_Driver/Src/stm32f4xx_hal_rcc.c ****   /* Get the HSE configuration -----------------------------------------------*/
 973:Drivers/STM32F4xx_HAL_Driver/Src/stm32f4xx_hal_rcc.c ****   if((RCC->CR &RCC_CR_HSEBYP) == RCC_CR_HSEBYP)
 1700              		.loc 1 973 10 view .LVU523
 1701 0002 244B     		ldr	r3, .L204
 970:Drivers/STM32F4xx_HAL_Driver/Src/stm32f4xx_hal_rcc.c **** 
 1702              		.loc 1 970 37 view .LVU524
 1703 0004 0260     		str	r2, [r0]
 1704              		.loc 1 973 3 is_stmt 1 view .LVU525
 1705              		.loc 1 973 10 is_stmt 0 view .LVU526
 1706 0006 1A68     		ldr	r2, [r3]
 1707              		.loc 1 973 5 view .LVU527
 1708 0008 5103     		lsls	r1, r2, #13
 1709 000a 3BD5     		bpl	.L196
 974:Drivers/STM32F4xx_HAL_Driver/Src/stm32f4xx_hal_rcc.c ****   {
 975:Drivers/STM32F4xx_HAL_Driver/Src/stm32f4xx_hal_rcc.c ****     RCC_OscInitStruct->HSEState = RCC_HSE_BYPASS;
 1710              		.loc 1 975 5 is_stmt 1 view .LVU528
 1711              		.loc 1 975 33 is_stmt 0 view .LVU529
 1712 000c 4FF4A023 		mov	r3, #327680
 1713 0010 4360     		str	r3, [r0, #4]
 1714              	.L197:
 976:Drivers/STM32F4xx_HAL_Driver/Src/stm32f4xx_hal_rcc.c ****   }
 977:Drivers/STM32F4xx_HAL_Driver/Src/stm32f4xx_hal_rcc.c ****   else if((RCC->CR &RCC_CR_HSEON) == RCC_CR_HSEON)
 978:Drivers/STM32F4xx_HAL_Driver/Src/stm32f4xx_hal_rcc.c ****   {
 979:Drivers/STM32F4xx_HAL_Driver/Src/stm32f4xx_hal_rcc.c ****     RCC_OscInitStruct->HSEState = RCC_HSE_ON;
 980:Drivers/STM32F4xx_HAL_Driver/Src/stm32f4xx_hal_rcc.c ****   }
 981:Drivers/STM32F4xx_HAL_Driver/Src/stm32f4xx_hal_rcc.c ****   else
 982:Drivers/STM32F4xx_HAL_Driver/Src/stm32f4xx_hal_rcc.c ****   {
 983:Drivers/STM32F4xx_HAL_Driver/Src/stm32f4xx_hal_rcc.c ****     RCC_OscInitStruct->HSEState = RCC_HSE_OFF;
 984:Drivers/STM32F4xx_HAL_Driver/Src/stm32f4xx_hal_rcc.c ****   }
 985:Drivers/STM32F4xx_HAL_Driver/Src/stm32f4xx_hal_rcc.c **** 
 986:Drivers/STM32F4xx_HAL_Driver/Src/stm32f4xx_hal_rcc.c ****   /* Get the HSI configuration -----------------------------------------------*/
 987:Drivers/STM32F4xx_HAL_Driver/Src/stm32f4xx_hal_rcc.c ****   if((RCC->CR &RCC_CR_HSION) == RCC_CR_HSION)
 1715              		.loc 1 987 3 is_stmt 1 view .LVU530
 1716              		.loc 1 987 10 is_stmt 0 view .LVU531
 1717 0012 204B     		ldr	r3, .L204
 1718 0014 1A68     		ldr	r2, [r3]
 1719 0016 02F00102 		and	r2, r2, #1
 1720 001a C260     		str	r2, [r0, #12]
 988:Drivers/STM32F4xx_HAL_Driver/Src/stm32f4xx_hal_rcc.c ****   {
 989:Drivers/STM32F4xx_HAL_Driver/Src/stm32f4xx_hal_rcc.c ****     RCC_OscInitStruct->HSIState = RCC_HSI_ON;
 990:Drivers/STM32F4xx_HAL_Driver/Src/stm32f4xx_hal_rcc.c ****   }
 991:Drivers/STM32F4xx_HAL_Driver/Src/stm32f4xx_hal_rcc.c ****   else
 992:Drivers/STM32F4xx_HAL_Driver/Src/stm32f4xx_hal_rcc.c ****   {
 993:Drivers/STM32F4xx_HAL_Driver/Src/stm32f4xx_hal_rcc.c ****     RCC_OscInitStruct->HSIState = RCC_HSI_OFF;
 994:Drivers/STM32F4xx_HAL_Driver/Src/stm32f4xx_hal_rcc.c ****   }
ARM GAS  /tmp/cc8pL1nJ.s 			page 54


 995:Drivers/STM32F4xx_HAL_Driver/Src/stm32f4xx_hal_rcc.c **** 
 996:Drivers/STM32F4xx_HAL_Driver/Src/stm32f4xx_hal_rcc.c ****   RCC_OscInitStruct->HSICalibrationValue = (uint32_t)((RCC->CR &RCC_CR_HSITRIM) >> RCC_CR_HSITRIM_P
 1721              		.loc 1 996 3 is_stmt 1 view .LVU532
 1722              		.loc 1 996 59 is_stmt 0 view .LVU533
 1723 001c 1A68     		ldr	r2, [r3]
 1724              		.loc 1 996 44 view .LVU534
 1725 001e C2F3C402 		ubfx	r2, r2, #3, #5
 1726              		.loc 1 996 42 view .LVU535
 1727 0022 0261     		str	r2, [r0, #16]
 997:Drivers/STM32F4xx_HAL_Driver/Src/stm32f4xx_hal_rcc.c **** 
 998:Drivers/STM32F4xx_HAL_Driver/Src/stm32f4xx_hal_rcc.c ****   /* Get the LSE configuration -----------------------------------------------*/
 999:Drivers/STM32F4xx_HAL_Driver/Src/stm32f4xx_hal_rcc.c ****   if((RCC->BDCR &RCC_BDCR_LSEBYP) == RCC_BDCR_LSEBYP)
 1728              		.loc 1 999 3 is_stmt 1 view .LVU536
 1729              		.loc 1 999 10 is_stmt 0 view .LVU537
 1730 0024 1A6F     		ldr	r2, [r3, #112]
 1731              		.loc 1 999 5 view .LVU538
 1732 0026 5207     		lsls	r2, r2, #29
 1733 0028 25D5     		bpl	.L199
1000:Drivers/STM32F4xx_HAL_Driver/Src/stm32f4xx_hal_rcc.c ****   {
1001:Drivers/STM32F4xx_HAL_Driver/Src/stm32f4xx_hal_rcc.c ****     RCC_OscInitStruct->LSEState = RCC_LSE_BYPASS;
 1734              		.loc 1 1001 5 is_stmt 1 view .LVU539
 1735              		.loc 1 1001 33 is_stmt 0 view .LVU540
 1736 002a 0523     		movs	r3, #5
 1737 002c 8360     		str	r3, [r0, #8]
 1738              	.L200:
1002:Drivers/STM32F4xx_HAL_Driver/Src/stm32f4xx_hal_rcc.c ****   }
1003:Drivers/STM32F4xx_HAL_Driver/Src/stm32f4xx_hal_rcc.c ****   else if((RCC->BDCR &RCC_BDCR_LSEON) == RCC_BDCR_LSEON)
1004:Drivers/STM32F4xx_HAL_Driver/Src/stm32f4xx_hal_rcc.c ****   {
1005:Drivers/STM32F4xx_HAL_Driver/Src/stm32f4xx_hal_rcc.c ****     RCC_OscInitStruct->LSEState = RCC_LSE_ON;
1006:Drivers/STM32F4xx_HAL_Driver/Src/stm32f4xx_hal_rcc.c ****   }
1007:Drivers/STM32F4xx_HAL_Driver/Src/stm32f4xx_hal_rcc.c ****   else
1008:Drivers/STM32F4xx_HAL_Driver/Src/stm32f4xx_hal_rcc.c ****   {
1009:Drivers/STM32F4xx_HAL_Driver/Src/stm32f4xx_hal_rcc.c ****     RCC_OscInitStruct->LSEState = RCC_LSE_OFF;
1010:Drivers/STM32F4xx_HAL_Driver/Src/stm32f4xx_hal_rcc.c ****   }
1011:Drivers/STM32F4xx_HAL_Driver/Src/stm32f4xx_hal_rcc.c **** 
1012:Drivers/STM32F4xx_HAL_Driver/Src/stm32f4xx_hal_rcc.c ****   /* Get the LSI configuration -----------------------------------------------*/
1013:Drivers/STM32F4xx_HAL_Driver/Src/stm32f4xx_hal_rcc.c ****   if((RCC->CSR &RCC_CSR_LSION) == RCC_CSR_LSION)
 1739              		.loc 1 1013 3 is_stmt 1 view .LVU541
 1740              		.loc 1 1013 10 is_stmt 0 view .LVU542
 1741 002e 194B     		ldr	r3, .L204
 1742 0030 5A6F     		ldr	r2, [r3, #116]
 1743 0032 02F00102 		and	r2, r2, #1
 1744 0036 4261     		str	r2, [r0, #20]
1014:Drivers/STM32F4xx_HAL_Driver/Src/stm32f4xx_hal_rcc.c ****   {
1015:Drivers/STM32F4xx_HAL_Driver/Src/stm32f4xx_hal_rcc.c ****     RCC_OscInitStruct->LSIState = RCC_LSI_ON;
1016:Drivers/STM32F4xx_HAL_Driver/Src/stm32f4xx_hal_rcc.c ****   }
1017:Drivers/STM32F4xx_HAL_Driver/Src/stm32f4xx_hal_rcc.c ****   else
1018:Drivers/STM32F4xx_HAL_Driver/Src/stm32f4xx_hal_rcc.c ****   {
1019:Drivers/STM32F4xx_HAL_Driver/Src/stm32f4xx_hal_rcc.c ****     RCC_OscInitStruct->LSIState = RCC_LSI_OFF;
1020:Drivers/STM32F4xx_HAL_Driver/Src/stm32f4xx_hal_rcc.c ****   }
1021:Drivers/STM32F4xx_HAL_Driver/Src/stm32f4xx_hal_rcc.c **** 
1022:Drivers/STM32F4xx_HAL_Driver/Src/stm32f4xx_hal_rcc.c ****   /* Get the PLL configuration -----------------------------------------------*/
1023:Drivers/STM32F4xx_HAL_Driver/Src/stm32f4xx_hal_rcc.c ****   if((RCC->CR &RCC_CR_PLLON) == RCC_CR_PLLON)
 1745              		.loc 1 1023 3 is_stmt 1 view .LVU543
 1746              		.loc 1 1023 10 is_stmt 0 view .LVU544
 1747 0038 1A68     		ldr	r2, [r3]
1024:Drivers/STM32F4xx_HAL_Driver/Src/stm32f4xx_hal_rcc.c ****   {
ARM GAS  /tmp/cc8pL1nJ.s 			page 55


1025:Drivers/STM32F4xx_HAL_Driver/Src/stm32f4xx_hal_rcc.c ****     RCC_OscInitStruct->PLL.PLLState = RCC_PLL_ON;
1026:Drivers/STM32F4xx_HAL_Driver/Src/stm32f4xx_hal_rcc.c ****   }
1027:Drivers/STM32F4xx_HAL_Driver/Src/stm32f4xx_hal_rcc.c ****   else
1028:Drivers/STM32F4xx_HAL_Driver/Src/stm32f4xx_hal_rcc.c ****   {
1029:Drivers/STM32F4xx_HAL_Driver/Src/stm32f4xx_hal_rcc.c ****     RCC_OscInitStruct->PLL.PLLState = RCC_PLL_OFF;
 1748              		.loc 1 1029 37 view .LVU545
 1749 003a 12F0807F 		tst	r2, #16777216
 1750 003e 14BF     		ite	ne
 1751 0040 0222     		movne	r2, #2
 1752 0042 0122     		moveq	r2, #1
 1753 0044 8261     		str	r2, [r0, #24]
1030:Drivers/STM32F4xx_HAL_Driver/Src/stm32f4xx_hal_rcc.c ****   }
1031:Drivers/STM32F4xx_HAL_Driver/Src/stm32f4xx_hal_rcc.c ****   RCC_OscInitStruct->PLL.PLLSource = (uint32_t)(RCC->PLLCFGR & RCC_PLLCFGR_PLLSRC);
 1754              		.loc 1 1031 3 is_stmt 1 view .LVU546
 1755              		.loc 1 1031 52 is_stmt 0 view .LVU547
 1756 0046 5A68     		ldr	r2, [r3, #4]
 1757              		.loc 1 1031 38 view .LVU548
 1758 0048 02F48002 		and	r2, r2, #4194304
 1759              		.loc 1 1031 36 view .LVU549
 1760 004c C261     		str	r2, [r0, #28]
1032:Drivers/STM32F4xx_HAL_Driver/Src/stm32f4xx_hal_rcc.c ****   RCC_OscInitStruct->PLL.PLLM = (uint32_t)(RCC->PLLCFGR & RCC_PLLCFGR_PLLM);
 1761              		.loc 1 1032 3 is_stmt 1 view .LVU550
 1762              		.loc 1 1032 47 is_stmt 0 view .LVU551
 1763 004e 5A68     		ldr	r2, [r3, #4]
 1764              		.loc 1 1032 33 view .LVU552
 1765 0050 02F03F02 		and	r2, r2, #63
 1766              		.loc 1 1032 31 view .LVU553
 1767 0054 0262     		str	r2, [r0, #32]
1033:Drivers/STM32F4xx_HAL_Driver/Src/stm32f4xx_hal_rcc.c ****   RCC_OscInitStruct->PLL.PLLN = (uint32_t)((RCC->PLLCFGR & RCC_PLLCFGR_PLLN) >> RCC_PLLCFGR_PLLN_Po
 1768              		.loc 1 1033 3 is_stmt 1 view .LVU554
 1769              		.loc 1 1033 48 is_stmt 0 view .LVU555
 1770 0056 5A68     		ldr	r2, [r3, #4]
 1771              		.loc 1 1033 33 view .LVU556
 1772 0058 C2F38812 		ubfx	r2, r2, #6, #9
 1773              		.loc 1 1033 31 view .LVU557
 1774 005c 4262     		str	r2, [r0, #36]
1034:Drivers/STM32F4xx_HAL_Driver/Src/stm32f4xx_hal_rcc.c ****   RCC_OscInitStruct->PLL.PLLP = (uint32_t)((((RCC->PLLCFGR & RCC_PLLCFGR_PLLP) + RCC_PLLCFGR_PLLP_0
 1775              		.loc 1 1034 3 is_stmt 1 view .LVU558
 1776              		.loc 1 1034 50 is_stmt 0 view .LVU559
 1777 005e 5A68     		ldr	r2, [r3, #4]
 1778              		.loc 1 1034 60 view .LVU560
 1779 0060 02F44032 		and	r2, r2, #196608
 1780              		.loc 1 1034 80 view .LVU561
 1781 0064 02F58032 		add	r2, r2, #65536
 1782              		.loc 1 1034 33 view .LVU562
 1783 0068 D20B     		lsrs	r2, r2, #15
 1784              		.loc 1 1034 31 view .LVU563
 1785 006a 8262     		str	r2, [r0, #40]
1035:Drivers/STM32F4xx_HAL_Driver/Src/stm32f4xx_hal_rcc.c ****   RCC_OscInitStruct->PLL.PLLQ = (uint32_t)((RCC->PLLCFGR & RCC_PLLCFGR_PLLQ) >> RCC_PLLCFGR_PLLQ_Po
 1786              		.loc 1 1035 3 is_stmt 1 view .LVU564
 1787              		.loc 1 1035 48 is_stmt 0 view .LVU565
 1788 006c 5B68     		ldr	r3, [r3, #4]
 1789              		.loc 1 1035 33 view .LVU566
 1790 006e C3F30363 		ubfx	r3, r3, #24, #4
 1791              		.loc 1 1035 31 view .LVU567
 1792 0072 C362     		str	r3, [r0, #44]
1036:Drivers/STM32F4xx_HAL_Driver/Src/stm32f4xx_hal_rcc.c **** }
ARM GAS  /tmp/cc8pL1nJ.s 			page 56


 1793              		.loc 1 1036 1 view .LVU568
 1794 0074 7047     		bx	lr
 1795              	.L199:
1003:Drivers/STM32F4xx_HAL_Driver/Src/stm32f4xx_hal_rcc.c ****   {
 1796              		.loc 1 1003 8 is_stmt 1 view .LVU569
1003:Drivers/STM32F4xx_HAL_Driver/Src/stm32f4xx_hal_rcc.c ****   {
 1797              		.loc 1 1003 15 is_stmt 0 view .LVU570
 1798 0076 1B6F     		ldr	r3, [r3, #112]
1003:Drivers/STM32F4xx_HAL_Driver/Src/stm32f4xx_hal_rcc.c ****   {
 1799              		.loc 1 1003 10 view .LVU571
 1800 0078 13F00103 		ands	r3, r3, #1
1005:Drivers/STM32F4xx_HAL_Driver/Src/stm32f4xx_hal_rcc.c ****   }
 1801              		.loc 1 1005 5 is_stmt 1 view .LVU572
1005:Drivers/STM32F4xx_HAL_Driver/Src/stm32f4xx_hal_rcc.c ****   }
 1802              		.loc 1 1005 33 is_stmt 0 view .LVU573
 1803 007c 18BF     		it	ne
 1804 007e 0123     		movne	r3, #1
1009:Drivers/STM32F4xx_HAL_Driver/Src/stm32f4xx_hal_rcc.c ****   }
 1805              		.loc 1 1009 5 is_stmt 1 view .LVU574
1009:Drivers/STM32F4xx_HAL_Driver/Src/stm32f4xx_hal_rcc.c ****   }
 1806              		.loc 1 1009 33 is_stmt 0 view .LVU575
 1807 0080 8360     		str	r3, [r0, #8]
 1808 0082 D4E7     		b	.L200
 1809              	.L196:
 977:Drivers/STM32F4xx_HAL_Driver/Src/stm32f4xx_hal_rcc.c ****   {
 1810              		.loc 1 977 8 is_stmt 1 view .LVU576
 977:Drivers/STM32F4xx_HAL_Driver/Src/stm32f4xx_hal_rcc.c ****   {
 1811              		.loc 1 977 15 is_stmt 0 view .LVU577
 1812 0084 1B68     		ldr	r3, [r3]
 977:Drivers/STM32F4xx_HAL_Driver/Src/stm32f4xx_hal_rcc.c ****   {
 1813              		.loc 1 977 10 view .LVU578
 1814 0086 13F48033 		ands	r3, r3, #65536
 979:Drivers/STM32F4xx_HAL_Driver/Src/stm32f4xx_hal_rcc.c ****   }
 1815              		.loc 1 979 5 is_stmt 1 view .LVU579
 979:Drivers/STM32F4xx_HAL_Driver/Src/stm32f4xx_hal_rcc.c ****   }
 1816              		.loc 1 979 33 is_stmt 0 view .LVU580
 1817 008a 18BF     		it	ne
 1818 008c 4FF48033 		movne	r3, #65536
 983:Drivers/STM32F4xx_HAL_Driver/Src/stm32f4xx_hal_rcc.c ****   }
 1819              		.loc 1 983 5 is_stmt 1 view .LVU581
 983:Drivers/STM32F4xx_HAL_Driver/Src/stm32f4xx_hal_rcc.c ****   }
 1820              		.loc 1 983 33 is_stmt 0 view .LVU582
 1821 0090 4360     		str	r3, [r0, #4]
 1822 0092 BEE7     		b	.L197
 1823              	.L205:
 1824              		.align	2
 1825              	.L204:
 1826 0094 00380240 		.word	1073887232
 1827              		.cfi_endproc
 1828              	.LFE136:
 1830              		.section	.text.HAL_RCC_GetClockConfig,"ax",%progbits
 1831              		.align	1
 1832              		.p2align 2,,3
 1833              		.global	HAL_RCC_GetClockConfig
 1834              		.syntax unified
 1835              		.thumb
 1836              		.thumb_func
ARM GAS  /tmp/cc8pL1nJ.s 			page 57


 1837              		.fpu fpv4-sp-d16
 1839              	HAL_RCC_GetClockConfig:
 1840              	.LVL118:
 1841              	.LFB137:
1037:Drivers/STM32F4xx_HAL_Driver/Src/stm32f4xx_hal_rcc.c **** 
1038:Drivers/STM32F4xx_HAL_Driver/Src/stm32f4xx_hal_rcc.c **** /**
1039:Drivers/STM32F4xx_HAL_Driver/Src/stm32f4xx_hal_rcc.c ****   * @brief  Configures the RCC_ClkInitStruct according to the internal
1040:Drivers/STM32F4xx_HAL_Driver/Src/stm32f4xx_hal_rcc.c ****   * RCC configuration registers.
1041:Drivers/STM32F4xx_HAL_Driver/Src/stm32f4xx_hal_rcc.c ****   * @param  RCC_ClkInitStruct pointer to an RCC_ClkInitTypeDef structure that
1042:Drivers/STM32F4xx_HAL_Driver/Src/stm32f4xx_hal_rcc.c ****   * will be configured.
1043:Drivers/STM32F4xx_HAL_Driver/Src/stm32f4xx_hal_rcc.c ****   * @param  pFLatency Pointer on the Flash Latency.
1044:Drivers/STM32F4xx_HAL_Driver/Src/stm32f4xx_hal_rcc.c ****   * @retval None
1045:Drivers/STM32F4xx_HAL_Driver/Src/stm32f4xx_hal_rcc.c ****   */
1046:Drivers/STM32F4xx_HAL_Driver/Src/stm32f4xx_hal_rcc.c **** void HAL_RCC_GetClockConfig(RCC_ClkInitTypeDef  *RCC_ClkInitStruct, uint32_t *pFLatency)
1047:Drivers/STM32F4xx_HAL_Driver/Src/stm32f4xx_hal_rcc.c **** {
 1842              		.loc 1 1047 1 is_stmt 1 view -0
 1843              		.cfi_startproc
 1844              		@ args = 0, pretend = 0, frame = 0
 1845              		@ frame_needed = 0, uses_anonymous_args = 0
 1846              		@ link register save eliminated.
1048:Drivers/STM32F4xx_HAL_Driver/Src/stm32f4xx_hal_rcc.c ****   /* Set all possible values for the Clock type parameter --------------------*/
1049:Drivers/STM32F4xx_HAL_Driver/Src/stm32f4xx_hal_rcc.c ****   RCC_ClkInitStruct->ClockType = RCC_CLOCKTYPE_SYSCLK | RCC_CLOCKTYPE_HCLK | RCC_CLOCKTYPE_PCLK1 | 
 1847              		.loc 1 1049 3 view .LVU584
1050:Drivers/STM32F4xx_HAL_Driver/Src/stm32f4xx_hal_rcc.c **** 
1051:Drivers/STM32F4xx_HAL_Driver/Src/stm32f4xx_hal_rcc.c ****   /* Get the SYSCLK configuration --------------------------------------------*/
1052:Drivers/STM32F4xx_HAL_Driver/Src/stm32f4xx_hal_rcc.c ****   RCC_ClkInitStruct->SYSCLKSource = (uint32_t)(RCC->CFGR & RCC_CFGR_SW);
 1848              		.loc 1 1052 51 is_stmt 0 view .LVU585
 1849 0000 0E4B     		ldr	r3, .L208
1049:Drivers/STM32F4xx_HAL_Driver/Src/stm32f4xx_hal_rcc.c **** 
 1850              		.loc 1 1049 32 view .LVU586
 1851 0002 0F22     		movs	r2, #15
 1852 0004 0260     		str	r2, [r0]
 1853              		.loc 1 1052 3 is_stmt 1 view .LVU587
 1854              		.loc 1 1052 51 is_stmt 0 view .LVU588
 1855 0006 9A68     		ldr	r2, [r3, #8]
 1856              		.loc 1 1052 37 view .LVU589
 1857 0008 02F00302 		and	r2, r2, #3
 1858              		.loc 1 1052 35 view .LVU590
 1859 000c 4260     		str	r2, [r0, #4]
1053:Drivers/STM32F4xx_HAL_Driver/Src/stm32f4xx_hal_rcc.c **** 
1054:Drivers/STM32F4xx_HAL_Driver/Src/stm32f4xx_hal_rcc.c ****   /* Get the HCLK configuration ----------------------------------------------*/
1055:Drivers/STM32F4xx_HAL_Driver/Src/stm32f4xx_hal_rcc.c ****   RCC_ClkInitStruct->AHBCLKDivider = (uint32_t)(RCC->CFGR & RCC_CFGR_HPRE);
 1860              		.loc 1 1055 3 is_stmt 1 view .LVU591
 1861              		.loc 1 1055 52 is_stmt 0 view .LVU592
 1862 000e 9A68     		ldr	r2, [r3, #8]
 1863              		.loc 1 1055 38 view .LVU593
 1864 0010 02F0F002 		and	r2, r2, #240
 1865              		.loc 1 1055 36 view .LVU594
 1866 0014 8260     		str	r2, [r0, #8]
1056:Drivers/STM32F4xx_HAL_Driver/Src/stm32f4xx_hal_rcc.c **** 
1057:Drivers/STM32F4xx_HAL_Driver/Src/stm32f4xx_hal_rcc.c ****   /* Get the APB1 configuration ----------------------------------------------*/
1058:Drivers/STM32F4xx_HAL_Driver/Src/stm32f4xx_hal_rcc.c ****   RCC_ClkInitStruct->APB1CLKDivider = (uint32_t)(RCC->CFGR & RCC_CFGR_PPRE1);
 1867              		.loc 1 1058 3 is_stmt 1 view .LVU595
 1868              		.loc 1 1058 53 is_stmt 0 view .LVU596
 1869 0016 9A68     		ldr	r2, [r3, #8]
 1870              		.loc 1 1058 39 view .LVU597
 1871 0018 02F4E052 		and	r2, r2, #7168
ARM GAS  /tmp/cc8pL1nJ.s 			page 58


 1872              		.loc 1 1058 37 view .LVU598
 1873 001c C260     		str	r2, [r0, #12]
1059:Drivers/STM32F4xx_HAL_Driver/Src/stm32f4xx_hal_rcc.c **** 
1060:Drivers/STM32F4xx_HAL_Driver/Src/stm32f4xx_hal_rcc.c ****   /* Get the APB2 configuration ----------------------------------------------*/
1061:Drivers/STM32F4xx_HAL_Driver/Src/stm32f4xx_hal_rcc.c ****   RCC_ClkInitStruct->APB2CLKDivider = (uint32_t)((RCC->CFGR & RCC_CFGR_PPRE2) >> 3U);
 1874              		.loc 1 1061 3 is_stmt 1 view .LVU599
 1875              		.loc 1 1061 54 is_stmt 0 view .LVU600
 1876 001e 9B68     		ldr	r3, [r3, #8]
 1877              		.loc 1 1061 39 view .LVU601
 1878 0020 DB08     		lsrs	r3, r3, #3
1047:Drivers/STM32F4xx_HAL_Driver/Src/stm32f4xx_hal_rcc.c ****   /* Set all possible values for the Clock type parameter --------------------*/
 1879              		.loc 1 1047 1 view .LVU602
 1880 0022 10B4     		push	{r4}
 1881              	.LCFI17:
 1882              		.cfi_def_cfa_offset 4
 1883              		.cfi_offset 4, -4
 1884              		.loc 1 1061 39 view .LVU603
 1885 0024 03F4E053 		and	r3, r3, #7168
1062:Drivers/STM32F4xx_HAL_Driver/Src/stm32f4xx_hal_rcc.c **** 
1063:Drivers/STM32F4xx_HAL_Driver/Src/stm32f4xx_hal_rcc.c ****   /* Get the Flash Wait State (Latency) configuration ------------------------*/
1064:Drivers/STM32F4xx_HAL_Driver/Src/stm32f4xx_hal_rcc.c ****   *pFLatency = (uint32_t)(FLASH->ACR & FLASH_ACR_LATENCY);
 1886              		.loc 1 1064 32 view .LVU604
 1887 0028 054C     		ldr	r4, .L208+4
1061:Drivers/STM32F4xx_HAL_Driver/Src/stm32f4xx_hal_rcc.c **** 
 1888              		.loc 1 1061 37 view .LVU605
 1889 002a 0361     		str	r3, [r0, #16]
 1890              		.loc 1 1064 3 is_stmt 1 view .LVU606
 1891              		.loc 1 1064 32 is_stmt 0 view .LVU607
 1892 002c 2368     		ldr	r3, [r4]
1065:Drivers/STM32F4xx_HAL_Driver/Src/stm32f4xx_hal_rcc.c **** }
 1893              		.loc 1 1065 1 view .LVU608
 1894 002e 5DF8044B 		ldr	r4, [sp], #4
 1895              	.LCFI18:
 1896              		.cfi_restore 4
 1897              		.cfi_def_cfa_offset 0
1064:Drivers/STM32F4xx_HAL_Driver/Src/stm32f4xx_hal_rcc.c **** }
 1898              		.loc 1 1064 16 view .LVU609
 1899 0032 03F00F03 		and	r3, r3, #15
1064:Drivers/STM32F4xx_HAL_Driver/Src/stm32f4xx_hal_rcc.c **** }
 1900              		.loc 1 1064 14 view .LVU610
 1901 0036 0B60     		str	r3, [r1]
 1902              		.loc 1 1065 1 view .LVU611
 1903 0038 7047     		bx	lr
 1904              	.L209:
 1905 003a 00BF     		.align	2
 1906              	.L208:
 1907 003c 00380240 		.word	1073887232
 1908 0040 003C0240 		.word	1073888256
 1909              		.cfi_endproc
 1910              	.LFE137:
 1912              		.section	.text.HAL_RCC_CSSCallback,"ax",%progbits
 1913              		.align	1
 1914              		.p2align 2,,3
 1915              		.weak	HAL_RCC_CSSCallback
 1916              		.syntax unified
 1917              		.thumb
 1918              		.thumb_func
ARM GAS  /tmp/cc8pL1nJ.s 			page 59


 1919              		.fpu fpv4-sp-d16
 1921              	HAL_RCC_CSSCallback:
 1922              	.LFB139:
1066:Drivers/STM32F4xx_HAL_Driver/Src/stm32f4xx_hal_rcc.c **** 
1067:Drivers/STM32F4xx_HAL_Driver/Src/stm32f4xx_hal_rcc.c **** /**
1068:Drivers/STM32F4xx_HAL_Driver/Src/stm32f4xx_hal_rcc.c ****   * @brief This function handles the RCC CSS interrupt request.
1069:Drivers/STM32F4xx_HAL_Driver/Src/stm32f4xx_hal_rcc.c ****   * @note This API should be called under the NMI_Handler().
1070:Drivers/STM32F4xx_HAL_Driver/Src/stm32f4xx_hal_rcc.c ****   * @retval None
1071:Drivers/STM32F4xx_HAL_Driver/Src/stm32f4xx_hal_rcc.c ****   */
1072:Drivers/STM32F4xx_HAL_Driver/Src/stm32f4xx_hal_rcc.c **** void HAL_RCC_NMI_IRQHandler(void)
1073:Drivers/STM32F4xx_HAL_Driver/Src/stm32f4xx_hal_rcc.c **** {
1074:Drivers/STM32F4xx_HAL_Driver/Src/stm32f4xx_hal_rcc.c ****   /* Check RCC CSSF flag  */
1075:Drivers/STM32F4xx_HAL_Driver/Src/stm32f4xx_hal_rcc.c ****   if(__HAL_RCC_GET_IT(RCC_IT_CSS))
1076:Drivers/STM32F4xx_HAL_Driver/Src/stm32f4xx_hal_rcc.c ****   {
1077:Drivers/STM32F4xx_HAL_Driver/Src/stm32f4xx_hal_rcc.c ****     /* RCC Clock Security System interrupt user callback */
1078:Drivers/STM32F4xx_HAL_Driver/Src/stm32f4xx_hal_rcc.c ****     HAL_RCC_CSSCallback();
1079:Drivers/STM32F4xx_HAL_Driver/Src/stm32f4xx_hal_rcc.c **** 
1080:Drivers/STM32F4xx_HAL_Driver/Src/stm32f4xx_hal_rcc.c ****     /* Clear RCC CSS pending bit */
1081:Drivers/STM32F4xx_HAL_Driver/Src/stm32f4xx_hal_rcc.c ****     __HAL_RCC_CLEAR_IT(RCC_IT_CSS);
1082:Drivers/STM32F4xx_HAL_Driver/Src/stm32f4xx_hal_rcc.c ****   }
1083:Drivers/STM32F4xx_HAL_Driver/Src/stm32f4xx_hal_rcc.c **** }
1084:Drivers/STM32F4xx_HAL_Driver/Src/stm32f4xx_hal_rcc.c **** 
1085:Drivers/STM32F4xx_HAL_Driver/Src/stm32f4xx_hal_rcc.c **** /**
1086:Drivers/STM32F4xx_HAL_Driver/Src/stm32f4xx_hal_rcc.c ****   * @brief  RCC Clock Security System interrupt callback
1087:Drivers/STM32F4xx_HAL_Driver/Src/stm32f4xx_hal_rcc.c ****   * @retval None
1088:Drivers/STM32F4xx_HAL_Driver/Src/stm32f4xx_hal_rcc.c ****   */
1089:Drivers/STM32F4xx_HAL_Driver/Src/stm32f4xx_hal_rcc.c **** __weak void HAL_RCC_CSSCallback(void)
1090:Drivers/STM32F4xx_HAL_Driver/Src/stm32f4xx_hal_rcc.c **** {
 1923              		.loc 1 1090 1 is_stmt 1 view -0
 1924              		.cfi_startproc
 1925              		@ args = 0, pretend = 0, frame = 0
 1926              		@ frame_needed = 0, uses_anonymous_args = 0
 1927              		@ link register save eliminated.
1091:Drivers/STM32F4xx_HAL_Driver/Src/stm32f4xx_hal_rcc.c ****   /* NOTE : This function Should not be modified, when the callback is needed,
1092:Drivers/STM32F4xx_HAL_Driver/Src/stm32f4xx_hal_rcc.c ****             the HAL_RCC_CSSCallback could be implemented in the user file
1093:Drivers/STM32F4xx_HAL_Driver/Src/stm32f4xx_hal_rcc.c ****    */
1094:Drivers/STM32F4xx_HAL_Driver/Src/stm32f4xx_hal_rcc.c **** }
 1928              		.loc 1 1094 1 view .LVU613
 1929 0000 7047     		bx	lr
 1930              		.cfi_endproc
 1931              	.LFE139:
 1933 0002 00BF     		.section	.text.HAL_RCC_NMI_IRQHandler,"ax",%progbits
 1934              		.align	1
 1935              		.p2align 2,,3
 1936              		.global	HAL_RCC_NMI_IRQHandler
 1937              		.syntax unified
 1938              		.thumb
 1939              		.thumb_func
 1940              		.fpu fpv4-sp-d16
 1942              	HAL_RCC_NMI_IRQHandler:
 1943              	.LFB138:
1073:Drivers/STM32F4xx_HAL_Driver/Src/stm32f4xx_hal_rcc.c ****   /* Check RCC CSSF flag  */
 1944              		.loc 1 1073 1 view -0
 1945              		.cfi_startproc
 1946              		@ args = 0, pretend = 0, frame = 0
 1947              		@ frame_needed = 0, uses_anonymous_args = 0
1075:Drivers/STM32F4xx_HAL_Driver/Src/stm32f4xx_hal_rcc.c ****   {
ARM GAS  /tmp/cc8pL1nJ.s 			page 60


 1948              		.loc 1 1075 3 view .LVU615
1073:Drivers/STM32F4xx_HAL_Driver/Src/stm32f4xx_hal_rcc.c ****   /* Check RCC CSSF flag  */
 1949              		.loc 1 1073 1 is_stmt 0 view .LVU616
 1950 0000 08B5     		push	{r3, lr}
 1951              	.LCFI19:
 1952              		.cfi_def_cfa_offset 8
 1953              		.cfi_offset 3, -8
 1954              		.cfi_offset 14, -4
1075:Drivers/STM32F4xx_HAL_Driver/Src/stm32f4xx_hal_rcc.c ****   {
 1955              		.loc 1 1075 6 view .LVU617
 1956 0002 054B     		ldr	r3, .L218
 1957 0004 DB68     		ldr	r3, [r3, #12]
1075:Drivers/STM32F4xx_HAL_Driver/Src/stm32f4xx_hal_rcc.c ****   {
 1958              		.loc 1 1075 5 view .LVU618
 1959 0006 1B06     		lsls	r3, r3, #24
 1960 0008 00D4     		bmi	.L217
1083:Drivers/STM32F4xx_HAL_Driver/Src/stm32f4xx_hal_rcc.c **** 
 1961              		.loc 1 1083 1 view .LVU619
 1962 000a 08BD     		pop	{r3, pc}
 1963              	.L217:
1078:Drivers/STM32F4xx_HAL_Driver/Src/stm32f4xx_hal_rcc.c **** 
 1964              		.loc 1 1078 5 is_stmt 1 view .LVU620
 1965 000c FFF7FEFF 		bl	HAL_RCC_CSSCallback
 1966              	.LVL119:
1081:Drivers/STM32F4xx_HAL_Driver/Src/stm32f4xx_hal_rcc.c ****   }
 1967              		.loc 1 1081 5 view .LVU621
 1968 0010 024B     		ldr	r3, .L218+4
 1969 0012 8022     		movs	r2, #128
 1970 0014 1A70     		strb	r2, [r3]
1083:Drivers/STM32F4xx_HAL_Driver/Src/stm32f4xx_hal_rcc.c **** 
 1971              		.loc 1 1083 1 is_stmt 0 view .LVU622
 1972 0016 08BD     		pop	{r3, pc}
 1973              	.L219:
 1974              		.align	2
 1975              	.L218:
 1976 0018 00380240 		.word	1073887232
 1977 001c 0E380240 		.word	1073887246
 1978              		.cfi_endproc
 1979              	.LFE138:
 1981              		.text
 1982              	.Letext0:
 1983              		.file 2 "/usr/arm-none-eabi/include/machine/_default_types.h"
 1984              		.file 3 "/usr/arm-none-eabi/include/sys/_stdint.h"
 1985              		.file 4 "Drivers/CMSIS/Include/core_cm4.h"
 1986              		.file 5 "Drivers/CMSIS/Device/ST/STM32F4xx/Include/system_stm32f4xx.h"
 1987              		.file 6 "Drivers/CMSIS/Device/ST/STM32F4xx/Include/stm32f401xe.h"
 1988              		.file 7 "Drivers/CMSIS/Device/ST/STM32F4xx/Include/stm32f4xx.h"
 1989              		.file 8 "/usr/arm-none-eabi/include/sys/lock.h"
 1990              		.file 9 "/usr/arm-none-eabi/include/sys/_types.h"
 1991              		.file 10 "/usr/lib/gcc/arm-none-eabi/8.2.0/include/stddef.h"
 1992              		.file 11 "/usr/arm-none-eabi/include/sys/reent.h"
 1993              		.file 12 "Drivers/STM32F4xx_HAL_Driver/Inc/stm32f4xx_hal_def.h"
 1994              		.file 13 "Drivers/STM32F4xx_HAL_Driver/Inc/stm32f4xx_hal_rcc_ex.h"
 1995              		.file 14 "Drivers/STM32F4xx_HAL_Driver/Inc/stm32f4xx_hal_rcc.h"
 1996              		.file 15 "Drivers/STM32F4xx_HAL_Driver/Inc/stm32f4xx_hal_gpio.h"
 1997              		.file 16 "Drivers/STM32F4xx_HAL_Driver/Inc/stm32f4xx_hal.h"
ARM GAS  /tmp/cc8pL1nJ.s 			page 61

